
 Start         Length     Name                   Class
 0007:00000000 00000E360H .bss                   BSS
 0002:00000000 000002EACH .text32                CODE
 0006:00000000 00000371CH .bss32                 BSS
 0001:00000000 0000000F4H .boot                  CODE
 0003:00000000 00005B728H .text                  CODE
 0004:00000000 000201C7CH .rodata                CONST
 0005:00000000 0002782F8H .data                  DATA


  Address         Publics by Value

 0007:00000000       errno
 0007:00000004       OBJVRAM_PTR
 0007:00000008       OAM_PTR
 0007:0000000C       OAM_ROTATEPTR
 0007:0000000D       BIG_FONT_PAL
 0007:0000000E       TITLE_STATE
 0007:0000000F       GAME_MODE
 0007:00000010       BIG_FONT_TABLE
 0007:000000DC       CHAR_SELECTED
 0007:000000DD       SPLINE_EDIT
 0007:000000E0       SMALL_FONT_PAL
 0007:000000E1       SMALL_FONT_COL
 0007:000000E2       OBJ_ATTR_0
 0007:000000E4       OBJ_ATTR_1
 0007:000000E6       OBJ_ATTR_2
 0007:000000E8       STORY_STAGE
 0007:000000EC       LOCAL_MEM
 0007:0000016C       SCRATCH_MEM
 0007:000001AC       hdma_buffer
 0007:000029AC       math_randseed
 0007:000029B0       joytrg_a_delay
 0007:000029B4       joytrg_b_delay
 0007:000029B8       joytrg_l_delay
 0007:000029BC       joytrg_r_delay
 0007:000029C0       audio_stopped
 0007:000029C4       plr_ctrl
 0007:00002A24       plr_ctrl_new
 0007:00002A84       game_level
 0007:00002A88       ai_network
 0007:00002A8C       vcount
 0007:00002E8C       vcount_p
 0007:00002E90       tmp_cmp_player
 0007:00002E94       logo_state
 0007:00002E98       logo_timer
 0007:00002EA0       state
 0007:00003864       next
 0007:00003868       left
 0007:0000386C       pal_bg
 0007:00003870       pal_skygradient
 0007:00003874       vtab_bd
 0007:000039B4       vtab_bldalpha
 0007:00003AF4       map_lvl0
 0007:00003AF8       map_lvl1
 0007:00003AFC       map_sky
 0007:00003B00       op_mask
 0007:00003B04       players
 0007:00003B14       camera
 0007:00003B18       monitor
 0007:00003B1C       object_draw_list
 0007:00003B20       object_process_list
 0007:00003B24       object_hit_hash
 0007:00003F24       objectv
 0007:0000A724       object_free_list
 0007:0000A728       cursor_x_0
 0007:0000A72C       cursor_y_0
 0007:0000A730       level_num
 0007:0000A734       menu
 0007:0000A738       ptcl_data
 0007:0000AF38       ptcl_palette
 0007:0000AF3A       ptcl_sv
 0007:0000AFBA       ptcl_sp
 0007:0000AFBC       spr_info
 0007:0000BFBC       spr_list
 0007:0000C0BC       spr_firstfree
 0007:0000C0C0       spr_numleft
 0007:0000C0C4       anim_blockv
 0007:0000C4C8       pts
 0007:0000C848       num_pts
 0007:0000C84C       get_pts
 0007:0000C850       looping
 0007:0000C858       pre_calc
 0007:0000C8B8       cur_pt
 0007:0000C8BC       cur_seg_pt
 0007:0000C8C0       delta
 0007:0000C8C4       transfercount
 0007:0000C8C8       errorcount
 0007:0000C8CC       unreperrorcount
 0007:0000C8D0       audio_num_channels
 0007:0000C8D4       audio_timer_ref
 0007:0000C8D8       audio_playback_freq_ref
 0007:0000C8DC       audio_freq_mult
 0007:0000C8E0       audio_buff_size_ref
 0007:0000C8E4       audio_fx_samplist_ref
 0007:0000C8E8       audio_tune_list_ref
 0007:0000C8EC       audio_unique_id
 0007:0000C8F0       audio_error_print
 0007:0000C8F4       menu_main_timer
 0007:0000C8F8       menu_main_state
 0007:0000C8FC       local_level
 0007:0000C900       handles
 0007:0000D980       oams
 0007:0000DD80       real_oams
 0007:0000DD84       max_oams
 0007:0000DD88       menu_anim_handles
 0007:0000DE38       count.21
 0007:0000DE3C       x
 0007:0000DE40       y
 0007:0000DE44       rotate
 0007:0000DE48       invscale
 0007:0000DE4C       dx
 0007:0000DE50       dy
 0007:0000DE54       wobble
 0007:0000DE58       yp_actual
 0007:0000DE5C       yp_target
 0007:0000DE60       rotate_actual
 0007:0000DE64       rotate_target
 0007:0000DE68       scale_actual
 0007:0000DE6C       scale_target
 0007:0000DE70       scaleinc
 0007:0000DE74       xp_actual
 0007:0000DE78       xp_target
 0007:0000DE7C       interpx
 0007:0000DE80       interpy
 0007:0000DE84       current_plane
 0007:0000DE88       state_0
 0007:0000DE8C       current_image
 0007:0000DE90       coin_handle
 0007:0000DE98       select_text_handles
 0007:0000DEB0       select_text_shadow_handle
 0007:0000DEB8       world_text_handle
 0007:0000DEBC       text_difficulty_handle
 0007:0000DEC0       shadow_buffer
 0007:0000DEC4       current_select
 0007:0000DEC8       current_mode
 0007:0000DECC       current_character
 0007:0000DED0       init_character
 0007:0000DED4       virtual_mode
 0007:0000DED8       x_actual
 0007:0000DEF0       x_target
 0007:0000DF08       select_x
 0007:0000DF20       select_y
 0007:0000DF38       flipped
 0007:0000DF3C       current_language
 0007:0000DF40       cursor_x
 0007:0000DF44       cursor_y
 0007:0000DF48       state_main
 0007:0000DF50       levels
 0007:0000DFF8       slots
 0007:0000E008       game
 0007:0000E00C       sls
 0007:0000E010       sl_chardata
 0007:0000E110       sl_charbase
 0007:0000E190       sl_base
 0007:0000E194       sl_start
 0007:0000E198       sl_left
 0007:0000E1D8       sl_right
 0007:0000E218       pls
 0007:0000E21C       pl_palidx
 0007:0000E25C       pl_base
 0007:0000E260       pl_start
 0007:0000E264       pl_left
 0007:0000E274       pl_right
 0007:0000E288       heap_end.63
 0007:0000E28C       monitor_stdin
 0007:0000E290       monitor_stdout
 0007:0000E294       monitor_stderr
 0007:0000E298       openfiles
 0007:0000E338       thenan.3
 0007:0000E350       thenan.3_0
 0002:00000000       sys_ram_funcs
 0002:000000C4       sys_read_tilt
 0002:00000108       spr_update_vram
 0002:0000028C       charbase
 0002:000003A0       spr_draw
 0002:00001F60       spr_decompress_sprite
 0002:00002010       bg_draw
 0002:00002418       obj_process
 0002:00002790       ram_cos
 0002:00002794       ram_sin
 0002:000027C0       ram_tan
 0002:000027EC       ram_asin
 0002:0000281C       ram_atan2
 0002:00002980       ram_cos_interp
 0002:00002984       ram_sin_interp
 0002:00002988       ram_tan_interp
 0002:0000298C       ram_divide
 0002:00002B54       ram_one_over_x
 0002:00002D1C       ram_mulx
 0002:00002D28       ram_sqrt
 0002:00002E68       ram_diff_angle
 0006:00000000       SMALL_FONT_AREA
 0006:000000A0       sys_oam
 0006:000004A0       sys_irq_table
 0006:000004DC       sys_irq_flag
 0006:000004DE       sys_joycnt
 0006:000004E0       sys_joytrg
 0006:000004E2       sys_joydbl
 0006:000004E4       sys_xcnt
 0006:000004E6       sys_ycnt
 0006:000004E8       sys_xmid
 0006:000004EA       sys_ymid
 0006:000004EC       sys_flags
 0006:000004F0       sys_counter
 0006:000004F4       sys_oam_start
 0006:000004F8       sys_mode
 0006:000004FC       oam_z
 0006:000006FC       audio_buff_tog
 0006:00000700       audio_cur_tune
 0006:00000704       audio_new_tune
 0006:00000708       audio_delta_time
 0006:00000788       audio_delta_time_dec
 0006:0000078C       audio_ppqn
 0006:00000790       audio_tempo
 0006:00000794       audio_buffers
 0006:00000C14       audio_precalc_buff
 0006:00000ED4       audio_pitchbend
 0006:00000F14       audio_modulation
 0006:00000F94       audio_chan_vols
 0006:00000FA4       audio_monophonic_op
 0006:00000FB4       audio_chan_notes
 0006:000021B4       audio_chan_fx
 0006:00002244       audio_chan_dly
 0006:00002250       audio_chan_id
 0006:0000225C       audio_num_tracks
 0006:00002260       audio_vmap_ptr
 0006:00002264       audio_voices
 0006:000022A4       audio_samp_list
 0006:000022A8       audio_midi_tracks
 0006:000022E8       audio_ram_code_blk
 0006:000036D4       audio_loop_ptrs
 0006:00003714       audio_tune_vol
 0006:00003718       audio_fx_vol
 0001:00000000       _start
 0001:000000C0       start_vector
 0003:00000000       __divsi3
 0003:00000004       __udivsi3
 0003:0000000C       __modsi3
 0003:00000014       test_path
 0003:000001D8       title
 0003:000001F0       OAMloop
 0003:00000240       title_pick_gametype
 0003:0000036E       demo_check
 0003:000003B4       title_zoom_diddy
 0003:000004B2       animate_diddy_plane
 0003:000004FA       bob_plane
 0003:00000542       plot_backok_icons
 0003:000006DC       plot_pickmode_arrows
 0003:0000071A       plot_pickmode_text
 0003:0000074C       plot_pickmode_icon
 0003:0000082C       animate_pickmode_icon
 0003:00000878       init_title
 0003:00000CB8       char_select
 0003:00000CF4       animate_arrow
 0003:00000D0E       plot_arrow
 0003:00000D3E       char_sel_fade
 0003:00000DA8       animate_char
 0003:00000DAC       plot_char
 0003:00000DD2       set_spr_pal
 0003:00000DF4       char_sel_input
 0003:00000EA2       set_bg_map
 0003:00000EC8       init_charsel
 0003:00001148       story_mode
 0003:0000117E       move_bg_anim
 0003:000011B4       plot_bg_anim
 0003:000011EC       fade_stuff
 0003:00001236       animate_cut_scene
 0003:0000126C       plot_cut_scene
 0003:000012B8       init_cut_scene
 0003:0000132A       move_map
 0003:000013D6       plot_map
 0003:00001442       init_map
 0003:000014B6       move_story_text
 0003:00001604       plot_story_text
 0003:00001654       plot_continue_arrow
 0003:000016B0       start_story_text
 0003:000016DE       clear_story_text
 0003:0000170C       fade_text_interupt
 0003:00001786       story_input
 0003:000017A0       next_stage
 0003:000017B0       do_story_stage
 0003:00001878       start_game
 0003:00001886       init_story
 0003:00001AA8       dogfight_select
 0003:00001AD4       plot_fight_text
 0003:00001B04       move_fight_text
 0003:00001B3C       plot_fight_opts
 0003:00001B78       move_fight_opts
 0003:00001C00       set_fight_pal
 0003:00001C22       fight_sel_input
 0003:00001D48       init_dogfight
 0003:00001F20       level_select
 0003:00001F58       plot_static_text
 0003:00001F78       move_levels
 0003:00001FAE       plot_levels
 0003:00001FEC       lev_sel_fade
 0003:00002038       lev_sel_input
 0003:000020D8       init_levsel
 0003:0000227C       control_select
 0003:000022E2       plot_centering_text
 0003:00002322       move_controls
 0003:0000238C       plot_controls
 0003:000023C6       control_sel_fade
 0003:0000242A       control_sel_input
 0003:000024FC       init_controlsel
 0003:00002718       calc_scalerot
 0003:000027F0       plot_big_text
 0003:00002832       plot_big_wavey_text
 0003:00002888       plot_letter
 0003:000028F8       calc_mess_length
 0003:00002916       init_big_font
 0003:000029C8       plot_small_text
 0003:00002A28       plot_small_chunk
 0003:00002AF2       letter_to_char_data
 0003:00002BC2       calc_sm_mess_length
 0003:00002BE4       init_small_font
 0003:00002CC8       get_text
 0003:00002CD8       sprite_data_plot
 0003:00002D22       sprite_frame_plot
 0003:00002D26       sprite_plot
 0003:00002D36       sprite_plot_just_frame
 0003:00002D4A       sprite_plot_loop
 0003:00002DA8       flip_sprite_frame_plot
 0003:00002DAC       flip_sprite_plot
 0003:00002E36       get_frame_info
 0003:00002E4A       rotsc_sprite_plot
 0003:00002F5C       create_rotscale
 0003:00002FC8       char_to_VRAM
 0003:00002FF2       finish_OAM
 0003:0000300E       setup_palette
 0003:000030F4       read_keys
 0003:0000320C       AgbMain
 0003:000034DC       irq_dummy
 0003:000034E0       irq_vblank_default
 0003:00003504       main_audio_off
 0003:00003518       main_audio_on
 0003:00003524       vblank_common_start
 0003:00003548       game_init
 0003:000037A0       game_process
 0003:00003A30       logo_process
 0003:00003A50       jpt_80069E6
 0003:00003C20       jpt_8006BB6
 0003:00003DF4       logo_init
 0003:00003E64       rnd_rand
 0003:00003FA0       rnd_seed
 0003:00003FF0       bg_init
 0003:00004260       bg_done
 0003:00004290       irq_vblank_background
 0003:000042E8       irq_hblank_background
 0003:00004320       obj_add_process
 0003:000043B0       obj_remove_process
 0003:0000444C       obj_remove_draw
 0003:000044D4       obj_add_hit
 0003:00004580       obj_free
 0003:00004658       obj_setup_sprite
 0003:000047A0       obj_destroy_sprite
 0003:00004868       obj_gen
 0003:00004930       obj_calc_bcylinder
 0003:00004984       obj_init
 0003:00004A18       obj_new
 0003:00004A78       obj_initialise
 0003:00004AD8       obj_cleanup
 0003:00004B14       obj_add_draw
 0003:00004B84       obj_remove_hit
 0003:00004C04       draw_char
 0003:00004CC0       draw_options
 0003:00004D60       menu_init
 0003:00004F98       menu_process
 0003:000050D0       ptcl_init
 0003:00005190       ptcl_process
 0003:00005238       ptcl_hit
 0003:00005330       ptcl_new
 0003:00005360       act_particle_cloud
 0003:00005364       spr_init
 0003:000053BC       spr_get_palette
 0003:000053C0       spr_get_palette_blend
 0003:000053C4       spr_free_palette
 0003:000053C8       spr_copy_sorted_oam
 0003:00005444       spr_set_animation
 0003:0000546C       spr_get_info
 0003:000054D8       spr_free_info
 0003:0000550C       spr_fix_shadow
 0003:0000554C       anim_get
 0003:00005630       anim_free
 0003:00005668       anim_process
 0003:000056D0       jpt_800865C
 0003:0000574C       anim_init
 0003:00005774       setup_player_data
 0003:0000579C       jpt_8008734
 0003:00005800       init_player
 0003:000058B0       act_player
 0003:00005C28       react_player
 0003:00005C94       get_player_head
 0003:00005CAC       jpt_8008C44
 0003:00005CDC       player_voice_delayed
 0003:00005D60       player_voice
 0003:00005DD4       init_comp_player
 0003:00005E88       ai_steer
 0003:000062C8       ai_think
 0003:00006420       jpt_80093A4
 0003:00006550       act_comp_player
 0003:000065EC       convert_to_comp_player
 0003:00006614       set_camera_from_player
 0003:000067B4       set_camera_pan
 0003:00006898       user_control_camera
 0003:00006B58       init_camera
 0003:00006C10       camera_race_start
 0003:00006D88       act_camera
 0003:00006E1C       act_null
 0003:00006E44       init_static
 0003:00006EC8       react_static
 0003:00006F10       react_palmtree
 0003:00006F78       react_lava_flame
 0003:00006FE0       init_hud_map
 0003:0000702C       jpt_8009FB6
 0003:000071DC       act_hud_map
 0003:00007304       init_hud_counter
 0003:000073A0       act_hud_counter
 0003:0000741C       jpt_800A39C
 0003:000074B8       act_hud_direction
 0003:0000750C       jpt_800A494
 0003:00007614       act_hud_position
 0003:0000768C       jpt_800A614
 0003:000078F0       act_hud_status
 0003:00007934       jpt_800A8C2
 0003:00007A68       init_hud_banana
 0003:00007B40       act_hud_banana
 0003:00007C58       init_hud_status
 0003:00007C8C       init_hud_position
 0003:00007CE8       init_hud_direction
 0003:00007D40       init_keep_mine
 0003:00007DC4       act_keep_mine
 0003:00007E44       react_keep_mine
 0003:00007E8C       init_farm_bunny
 0003:00007EF4       act_farm_bunny
 0003:00008048       init_farm_jumping_vegetable
 0003:000080B0       init_farm_chicken
 0003:0000812C       act_farm_chicken
 0003:00008208       init_farm_egg_hud
 0003:000083FC       init_farm_egg
 0003:0000846C       act_farm_egg
 0003:000084AC       jpt_800B434
 0003:00008564       react_farm_bunny
 0003:000085AC       act_farm_jumping_vegetable
 0003:000085D4       react_farm_jumping_vegetable
 0003:0000861C       react_farm_chicken
 0003:00008684       init_farm_egg_monitor
 0003:000086E8       act_farm_egg_monitor
 0003:00008748       act_farm_egg_hud
 0003:00008774       init_farm_nestpoint
 0003:000087A8       act_farm_nestpoint
 0003:000087D4       react_farm_nestpoint
 0003:00008820       init_farm_egg_generator
 0003:00008858       act_farm_egg_generator
 0003:000088C4       react_farm_egg
 0003:0000893C       init_haunted_ghost
 0003:00008A28       act_haunted_ghost
 0003:00008AD4       init_happy_soul_monitor
 0003:00008B58       act_happy_soul_monitor
 0003:00008C00       init_happy_soul_hud
 0003:00008D24       setup_timer
 0003:00008E38       act_happy_soul_hud
 0003:00008F54       act_happy_soul
 0003:00008F74       jpt_800BF0C
 0003:0000914C       init_soul_eater
 0003:0000919C       act_soul_eater
 0003:000093B8       react_magic_well
 0003:00009490       react_haunted_ghost
 0003:000094F8       init_happy_soul_generator
 0003:00009510       act_happy_soul_generator
 0003:00009560       init_happy_soul
 0003:000095A8       react_happy_soul
 0003:00009620       react_soul_eater
 0003:0000963C       init_magic_well
 0003:00009664       act_magic_well
 0003:000096F4       init_bouncing_bomb
 0003:00009750       act_bouncing_bomb
 0003:000097AC       react_bouncing_bomb
 0003:000097F4       campan_addpt
 0003:000098A0       campan_load
 0003:00009914       campan_load2
 0003:000099F4       campan_output
 0003:00009AB0       campan_getrawpt
 0003:00009B20       campan_getpt
 0003:00009CC0       campan_start_seg
 0003:0000A078       campan_init
 0003:0000A0A8       campan_init2
 0003:0000A0B4       campan_start
 0003:0000A0E4       campan_loopit
 0003:0000A128       shift_rot_nearest
 0003:0000A170       init_beacon
 0003:0000A198       act_beacon
 0003:0000A1C0       react_beacon
 0003:0000A208       init_powerup
 0003:0000A2A8       act_powerup
 0003:0000A350       react_powerup
 0003:0000A448       init_starthoop
 0003:0000A670       act_starthoop
 0003:0000A768       init_start_pos
 0003:0000A830       init_beachhut
 0003:0000A878       jpt_800D800
 0003:0000A914       act_beachhut
 0003:0000A958       react_beachhut
 0003:0000A9C0       init_bonusitem
 0003:0000AA4C       act_bonusitem
 0003:0000AAA8       react_bonusitem
 0003:0000AB20       init_banana
 0003:0000AB90       react_banana
 0003:0000AC08       init_pylon
 0003:0000ACB8       act_pylon
 0003:0000AFA4       react_pylon
 0003:0000B00C       calculate_race_positions
 0003:0000B47C       init_race_monitor
 0003:0000B5B4       act_race_monitor
 0003:0000B614       jpt_800E5A2
 0003:0000B6BC       race_complete_lap
 0003:0000B7A8       race_fail_player
 0003:0000B7E0       init_tideanim
 0003:0000B86C       act_tideanim
 0003:0000B900       player_collide
 0003:0000B9B8       player_tumble
 0003:0000BA8C       move_player
 0003:0000BD64       jpt_800ECFC
 0003:0000C2E8       jpt_800F280
 0003:0000C7F8       tend_towards
 0003:0000C830       player_crash
 0003:0000C8D4       player_boost
 0003:0000C904       react_groundboost
 0003:0000C9D8       init_groundboost
 0003:0000CA28       act_groundboost
 0003:0000CA64       act_fader
 0003:0000CB34       init_fader
 0003:0000CB74       init_directional_arrow
 0003:0000CBC4       react_directional_arrow
 0003:0000CC2C       init_booster
 0003:0000CCA8       react_booster
 0003:0000CD5C       act_booster
 0003:0000CD98       react_turbo
 0003:0000CE10       act_pause
 0003:0000CF4C       init_pause
 0003:0000CF88       init_beach_gun
 0003:0000CFF0       act_beach_gun
 0003:0000D018       react_beach_gun
 0003:0000D060       init_hud_weapon
 0003:0000D0E8       act_hud_weapon
 0003:0000D268       destroy_melon
 0003:0000D2E0       init_weapon_melon
 0003:0000D35C       act_weapon_melon
 0003:0000D3B8       jpt_8010342
 0003:0000D490       init_weapon_mango
 0003:0000D510       act_weapon_mango
 0003:0000D574       jpt_80104FA
 0003:0000D77C       act_weapon_cannon
 0003:0000D8A4       init_weapon_rocket
 0003:0000D930       act_weapon_rocket
 0003:0000DC9C       init_weapon_chain_rocket
 0003:0000DD20       act_weapon_chain_rocket
 0003:0000E128       init_weapon_grip_grab
 0003:0000E1D8       act_weapon_grip_grab
 0003:0000E5A4       react_weapon_melon
 0003:0000E61C       react_weapon_mango
 0003:0000E694       init_weapon_cannon
 0003:0000E6CC       react_weapon_cannon
 0003:0000E718       react_weapon_rocket
 0003:0000E78C       react_weapon_chain_rocket
 0003:0000E800       react_weapon_grip_grab
 0003:0000E870       init_weapon_clasp_grasp
 0003:0000E874       act_weapon_clasp_grasp
 0003:0000E880       react_weapon_clasp_grasp
 0003:0000E884       init_swamp_frogpoint
 0003:0000E8E8       act_swamp_frogpoint
 0003:0000E8EC       react_swamp_frogpoint
 0003:0000E934       init_swamp_targetbeast
 0003:0000E998       act_swamp_targetbeast
 0003:0000E9C0       react_swamp_targetbeast
 0003:0000EA08       init_swamp_lilliepad
 0003:0000EA38       act_swamp_lilliepad
 0003:0000EA3C       react_swamp_lilliepad
 0003:0000EA84       init_swamp_gun
 0003:0000EAE8       act_swamp_gun
 0003:0000EB10       react_swamp_gun
 0003:0000EB58       init_jungle_grubhole
 0003:0000EBBC       act_jungle_grubhole
 0003:0000EBC0       react_jungle_grubhole
 0003:0000EC08       init_jungle_crowpoint
 0003:0000EC6C       act_jungle_crowpoint
 0003:0000EC70       react_jungle_crowpoint
 0003:0000ECB8       init_jungle_royalbird
 0003:0000ED1C       act_jungle_royalbird
 0003:0000ED20       react_jungle_royalbird
 0003:0000ED68       multi_interrupt
 0003:0000EE34       multi_test
 0003:0000EEAC       audio_init_sound
 0003:0000EEB8       audio_vsync
 0003:0000EEC4       audio_main
 0003:0000EED0       menu_main
 0003:0000EF04       jpt_8011E94
 0003:0000F028       jpt_8011FBC
 0003:0000F1B0       menu_main_init_jap_warning
 0003:0000F254       menu_main_init
 0003:0000F304       menu_main_kill
 0003:0000F31C       menu_text_init
 0003:0000F4AC       menu_text_process
 0003:0000F6E4       menu_text_printf
 0003:0000F7E4       menu_text_draw
 0003:0000F814       menu_text_kill
 0003:0000F870       menu_text_remove
 0003:0000F908       menu_text_set_font_handle
 0003:0000F958       menu_text_set_xy_handle
 0003:0000F9B8       menu_text_set_x_handle
 0003:0000FA08       menu_text_set_dx_handle
 0003:0000FA58       menu_text_set_y_handle
 0003:0000FAA8       menu_text_set_dy_handle
 0003:0000FAF8       menu_text_set_palette_handle
 0003:0000FB48       menu_text_set_shadow_handle
 0003:0000FB98       menu_text_set_callback_handle
 0003:0000FBF0       menu_text_wobble_x_callback
 0003:0000FC4C       menu_text_wobble_y_callback
 0003:0000FCBC       menu_anim_process
 0003:0000FD3C       menu_anim_init
 0003:0000FD54       menu_anim_draw
 0003:0000FDB0       menu_anim_kill
 0003:0000FDC8       menu_anim_insert
 0003:0000FE78       menu_anim_remove
 0003:0000FEBC       menu_anim_set_frame
 0003:0000FED0       menu_anim_get_frame
 0003:0000FEE4       menu_anim_set_fromdata_handle
 0003:0000FEF8       menu_anim_set_work1_handle
 0003:0000FF0C       menu_anim_set_work2_handle
 0003:0000FF20       menu_anim_set_callback_handle
 0003:0000FF34       menu_anim_spinout_callback
 0003:0000FF9C       menu_anim_set_mode_handle
 0003:0000FFAC       menu_oam_init
 0003:0000FFD8       menu_oam_get_size
 0003:0001000C       menu_oam_kill
 0003:00010038       menu_plane_init_plane
 0003:0001019C       menu_plane_init
 0003:0001027C       menu_plane_process
 0003:00010528       menu_plane_draw
 0003:00010560       menu_plane_kill
 0003:00010564       menu_plane_set_level
 0003:000105F0       menu_plane_set_plane
 0003:0001060C       menu_plane_zoomout
 0003:00010690       menu_image_init
 0003:000106A0       menu_image_process
 0003:000106A4       menu_image_draw
 0003:000106A8       menu_image_kill
 0003:000106AC       menu_image_set_image
 0003:00010724       menu_background_init
 0003:00010850       menu_border_init
 0003:00010934       menu_coin_init
 0003:00010994       menu_coin_process
 0003:00010998       menu_coin_draw
 0003:0001099C       menu_coin_kill
 0003:000109B0       menu_coin_flip
 0003:000109F0       menu_mode_init
 0003:00010C30       menu_mode_process
 0003:00010CFC       menu_mode_highlight
 0003:0001113C       menu_mode_draw
 0003:00011194       menu_mode_kill
 0003:000111AC       menu_mode_get_num_selects
 0003:000111D4       menu_mode_get_select_xy
 0003:0001120C       menu_mode_flipping
 0003:00011218       menu_mode_selected
 0003:00011254       menu_mode_get_level
 0003:000112C0       menu_mode_get_old_level_text
 0003:00011308       draw_char_0
 0003:000113C4       menu_spline_init
 0003:00011854       menu_spline_process
 0003:0001186C       draw_dec
 0003:000118C8       state_main_init
 0003:000118E8       state_level_init
 0003:00011910       state_level_kill
 0003:00011914       state_level_load
 0003:00011918       state_level_save
 0003:0001191C       state_level_get_award
 0003:00011920       state_level_set_award
 0003:00011930       state_slot_init
 0003:00011948       state_slot_kill
 0003:0001194C       state_slot_load
 0003:00011950       state_slot_save
 0003:00011954       state_game_init
 0003:00011960       audio_ram_code_size_ref
 0003:00011964       START_AUDIO_RAM_CODE
 0003:000119B0       generate_audio_buffer_ARM
 0003:00011A6C       gab_all_notes_playing
 0003:00011AAC       cont
 0003:00011AC4       gab_play_note
 0003:00011AF8       update_all_fx_ARM
 0003:00011B10       update_all_notes_ARM
 0003:00011B24       jumpin_uaf
 0003:00011B48       uan_calc_new_sptr
 0003:00011B64       uan_dont_gen_phase_inc
 0003:00011BE0       uan_set_channel_to_loop_pnt
 0003:00011BF8       uan_set_channel_to_empty
 0003:00011C04       uan_set_channel_to_stopped
 0003:00011C30       uan_not_past_end_of_samp
 0003:00011C70       update_all_fx_adsr_ARM
 0003:00011C88       update_all_notes_adsr_ARM
 0003:00011C9C       jumpin_uafa
 0003:00011CB0       uana_update_next_note
 0003:00011CC0       uana_pro_envelope
 0003:00011CF8       adsr_acts
 0003:00011D14       adsr_acts_end
 0003:00011D5C       adsr_attack
 0003:00011D7C       adsr_attack_complete
 0003:00011D90       adsr_setup_decay
 0003:00011DFC       adsr_decay
 0003:00011E20       adsr_decay_complete
 0003:00011E3C       adsr_sustain
 0003:00011E4C       adsr_setup_release
 0003:00011E94       adsr_release
 0003:00011EA4       sample_vol_inaudible
 0003:00011EB4       midicom_tempo
 0003:00011EDC       set_new_tempo
 0003:00011F1C       midicom_ev_tme_1b
 0003:00011F78       midicom_ev_tme_2b
 0003:00011FDC       midicom_ev_tme_3b
 0003:0001207C       midicom_ev_tme_4b
 0003:00012098       midicom_note_on
 0003:000120C8       mno_not_at_end_of_slot_empty
 0003:000120E4       mno_not_at_end_of_slot_release
 0003:00012100       too_many_notes_on_1_voice_ERR_ret
 0003:0001210C       mno_found_empty_slot_mono
 0003:00012190       setup_for_rhythm_set
 0003:000121D0       setup_for_keysplit
 0003:0001220C       setup_for_direct
 0003:00012220       mno_finish
 0003:00012224       process_tune_ARM
 0003:00012240       pt_next_track
 0003:00012274       pt_still_overflowed
 0003:00012278       next_midi_command
 0003:000122AC       pt_new_delta_time_set
 0003:000122CC       pt_end_of_track
 0003:000122D8       pt_test_for_1st_track
 0003:00012314       midi_commands
 0003:00012348       midi_commands_end
 0003:00012458       midicom_note_off
 0003:00012498       mnof_found_note_on
 0003:000124B0       mnof_finish
 0003:000124B4       midicom_controller
 0003:000124F4       midicom_ctrl_1
 0003:00012508       midicom_ctrl_7
 0003:00012514       midicom_ctrl_102
 0003:00012524       midicom_ctrl_103
 0003:00012534       midicom_ctrl_126
 0003:00012544       midicom_ctrl_127
 0003:00012554       midicom_ctrl_fin
 0003:00012558       midicom_prog_chng
 0003:000125A4       midicom_chan_press
 0003:000125AC       midicom_pitch_wh
 0003:000125C8       midicom_end_of_track
 0003:000125DC       midicom_debug
 0003:000125E4       div_u32_u16_ARM
 0003:0001269C       div_s64_s32_ARM
 0003:00012894       combine_note
 0003:00012978       not_1st_time
 0003:000129F4       reached_end_of_samp
 0003:00012A20       set_channel_to_stopped
 0003:00012A4C       set_channel_to_empty_fx
 0003:00012A58       set_channel_to_loop_pnt
 0003:00012A68       audio_buff_full
 0003:00012A78       combine_note_finish
 0003:00012A80       calc_phase_inc
 0003:00012CA0       audio_start_tune
 0003:00012CC4       audio_vsync_asm
 0003:00012CEC       audio_init
 0003:00012E12       audio_asmprocess
 0003:00012EAA       no_new_tune
 0003:00013008       update_modulation
 0003:00013018       um_next_mod
 0003:0001301E       um_add_phase_inc
 0003:0001303A       update_all_fx_durs
 0003:0001304A       uafd_next_fx
 0003:00013054       uafd_found_fx
 0003:00013064       setup_new_fx_struct
 0003:000130AA       anf_found_empty_slot
 0003:000130F8       anf_finish
 0003:000130FC       audio_fx_still_active
 0003:00013120       is_fx_still_active
 0003:0001313C       ifsa_found_used_slot
 0003:00013148       audio_fx_pitch_mod
 0003:00013174       audio_fx_volume_mod
 0003:000131A0       audio_halt_fx
 0003:000131CE       audio_halt_all_fx
 0003:000131F2       audio_halt_tune
 0003:0001321E       audio_set_tune_vol
 0003:00013224       audio_set_fx_vol
 0003:0001322A       audio_get_tempo
 0003:00013230       audio_set_tempo
 0003:0001325C       audio_release_fx
 0003:00013290       audio_new_fx
 0003:00013294       audio_new_fx_with_dur
 0003:00013308       set_new_fx_common
 0003:0001333C       audio_pause
 0003:0001334A       audio_set_playback_freq
 0003:000133DA       audio_get_cur_tune_num
 0003:000133E0       audio_set_num_channels
 0003:000133E6       wait_vbl
 0003:000133F6       print_text
 0003:0001340C       reset_pitchbend
 0003:0001341C       reset_modulation
 0003:0001342A       wipe_audio_buff
 0003:0001349E       reset_all_notes
 0003:000134C6       reset_all_fx
 0003:000134DE       reset_chan_vols
 0003:000134EC       reset_all_monophonic_flags
 0003:000134FA       too_many_notes_on_1_voice_ERR
 0003:00013620       pitchfreqs_start
 0003:00013720       middle_key
 0003:00013820       decay_rel_tab
 0003:00013884       mod_start
 0003:00013C88       mod_end
 0003:00013CC7       AE_off_top_of_pitchfreqs_start
 0003:00013CED       AE_off_bottom_of_pitchfreqs_end
 0003:00013CEE       aUdioErrorPitch
 0003:00013D14       AE_adsr_acts_table_exceeded
 0003:00013D3B       AE_midi_command_table_exceeded
 0003:00013D3C       aUdioErrorMidi_
 0003:00013D65       AE_midi_delta_time_too_big
 0003:00013D8B       AE_midi_delta_time_of_4_bytes_unsupported
 0003:00013DA0       aTaTimeOf4Bytes
 0003:00013DC0       AE_too_many_notes_on_chan_0
 0003:00013E43       AE_too_many_notes_on_chan_1
 0003:00013EC6       AE_too_many_notes_on_chan_2
 0003:00013F49       AE_too_many_notes_on_chan_3
 0003:00013F8C       aOrModifyTunePe
 0003:00013FCC       AE_too_many_notes_on_chan_4
 0003:0001401C       aDifyTunePerhap
 0003:0001404F       AE_too_many_notes_on_chan_5
 0003:00014090       aOrModifyTune_0
 0003:000140D2       AE_too_many_notes_on_chan_6
 0003:00014124       aFyTunePerhapsR
 0003:00014155       AE_too_many_notes_on_chan_7
 0003:0001417C       a7_increasePoly
 0003:000141D8       AE_too_many_notes_on_chan_8
 0003:00014228       aDifyTunePerh_0
 0003:0001425B       AE_too_many_notes_on_chan_9
 0003:0001429C       aOrModifyTune_1
 0003:000142DE       AE_too_many_notes_on_chan_10
 0003:00014330       aIfyTunePerhaps
 0003:00014362       AE_too_many_notes_on_chan_11
 0003:00014388       a11_increasePol
 0003:000143E6       AE_too_many_notes_on_chan_12
 0003:00014434       aModifyTunePerh
 0003:0001446A       AE_too_many_notes_on_chan_13
 0003:000144B8       aModifyTunePe_0
 0003:000144EE       AE_too_many_notes_on_chan_14
 0003:0001453C       aModifyTunePe_1
 0003:00014572       AE_too_many_notes_on_chan_15
 0003:000145C0       aModifyTunePe_2
 0003:000145F6       AE_not_enough_space_to_put_audio_RAM_code
 0003:00014608       aNoughSpaceToPu
 0003:0001462B       AE_more_than_16_tracks_in_song
 0003:00014644       aTracksInSong
 0003:00014655       AE_initial_sfx_vol_more_than_127
 0003:00014684       AE_tune_num_more_than_max_tunes
 0003:0001468C       aRorTuneNumMaxT
 0003:000146B1       AE_note_on_requested_before_prog_chng
 0003:000146C8       aOnCommandBefor
 0003:000146F2       AE_requested_playback_freq_exceeds_max
 0003:00014710       aKFreqExceedsMa
 0003:00014729       AE_incorrect_note_mapping_for_rhythm_set
 0003:0001475D       AE_incorrect_note_mapping_for_keysplit
 0003:00014790       small_beach_barricade_frames
 0003:000147A4       small_beach_barricade_info_0
 0003:000147D4       small_beach_barricade_char_0
 0003:00016BD4       handcoin_frames
 0003:00016C58       handcoin_info_0
 0003:00016C64       handcoin_info_1
 0003:00016C70       handcoin_info_2
 0003:00016C7C       handcoin_info_3
 0003:00016C88       handcoin_info_4
 0003:00016C94       handcoin_info_5
 0003:00016CA0       handcoin_info_6
 0003:00016CAC       handcoin_info_7
 0003:00016CB8       handcoin_char_0
 0003:000170B8       handcoin_char_1
 0003:000174B8       handcoin_char_2
 0003:000178B8       handcoin_char_3
 0003:00017CB8       handcoin_char_4
 0003:000180B8       handcoin_char_5
 0003:000184B8       handcoin_char_6
 0003:000188B8       handcoin_char_7
 0003:00018CB8       qmarkcoin_frames
 0003:00018D3C       qmarkcoin_info_0
 0003:00018D48       qmarkcoin_info_1
 0003:00018D54       qmarkcoin_info_2
 0003:00018D60       qmarkcoin_info_3
 0003:00018D6C       qmarkcoin_info_4
 0003:00018D78       qmarkcoin_info_5
 0003:00018D84       qmarkcoin_info_6
 0003:00018D90       qmarkcoin_info_7
 0003:00018D9C       qmarkcoin_char_0
 0003:0001919C       qmarkcoin_char_1
 0003:0001959C       qmarkcoin_char_2
 0003:0001999C       qmarkcoin_char_3
 0003:00019D9C       qmarkcoin_char_4
 0003:0001A19C       qmarkcoin_char_5
 0003:0001A59C       qmarkcoin_char_6
 0003:0001A99C       qmarkcoin_char_7
 0003:0001AD9C       select_screen_text2_frames
 0003:0001ADB0       select_screen_text2_info_0
 0003:0001B278       select_screen_text2_char_0
 0003:0001BCF8       aSfffffftsfffff
 0003:0001BD1E       aUcucccu
 0003:0001C58A       aUuuuuuFffffffT
 0003:0001C5A1       aFff
 0003:0001E002       aFfffffuuffffff
 0003:0001E019       aUuuuccc
 0003:0001FEF8       hair_raising_rescue_frames
 0003:0001FF0C       hair_raising_rescue_info_0
 0003:0001FF3C       hair_raising_rescue_char_0
 0003:0002233C       smallfont_frames
 0003:00022350       smallfont_info_0
 0003:0002289C       smallfont_char_0
 0003:000244DC       small_chickenrun_frames
 0003:000244F0       small_chickenrun_info_0
 0003:00024520       small_chickenrun_char_0
 0003:00026920       small_not_used_frames
 0003:00026934       small_not_used_info_0
 0003:00026964       small_not_used_char_0
 0003:00028D64       small_crab_beach_frames
 0003:00028D78       small_crab_beach_info_0
 0003:00028DA8       small_crab_beach_char_0
 0003:0002B1A8       small_fishbeach_frames
 0003:0002B1BC       small_fishbeach_info_0
 0003:0002B1EC       small_fishbeach_char_0
 0003:0002D5EC       small_fly_like_the_wind_frames
 0003:0002D600       small_fly_like_the_wind_info_0
 0003:0002D630       small_fly_like_the_wind_char_0
 0003:0002FA30       small_hatch_match_frames
 0003:0002FA44       small_hatch_match_info_0
 0003:0002FA74       small_hatch_match_char_0
 0003:00031E74       small_haunted_frames
 0003:00031E88       small_haunted_info_0
 0003:00031EB8       small_haunted_char_0
 0003:000342B8       small_jungle_dogfight_frames
 0003:000342CC       small_jungle_dogfight_info_0
 0003:000342FC       small_jungle_dogfight_char_0
 0003:000366FC       small_focal_feud_frames
 0003:00036710       small_focal_feud_info_0
 0003:00036740       small_focal_feud_char_0
 0003:00038B40       small_grubgrab_frames
 0003:00038B54       small_grubgrab_info_0
 0003:00038B84       small_grubgrab_char_0
 0003:0003AF84       small_krools_darktower_frames
 0003:0003AF98       small_krools_darktower_info_0
 0003:0003AFC8       small_krools_darktower_char_0
 0003:0003D3C8       small_peaceful_passage_frames
 0003:0003D3DC       small_peaceful_passage_info_0
 0003:0003D40C       small_peaceful_passage_char_0
 0003:0003F80C       small_wasteland_wipeout_frames
 0003:0003F820       small_wasteland_wipeout_info_0
 0003:0003F850       small_wasteland_wipeout_char_0
 0003:00041C50       coinbronze_frames
 0003:00041CD4       coinbronze_info_0
 0003:00041CE0       coinbronze_info_1
 0003:00041CEC       coinbronze_info_2
 0003:00041CF8       coinbronze_info_3
 0003:00041D04       coinbronze_info_4
 0003:00041D10       coinbronze_info_5
 0003:00041D1C       coinbronze_info_6
 0003:00041D28       coinbronze_info_7
 0003:00041D34       coinbronze_char_0
 0003:00042134       coinbronze_char_1
 0003:00042534       coinbronze_char_2
 0003:00042934       coinbronze_char_3
 0003:00042D34       coinbronze_char_4
 0003:00043134       coinbronze_char_5
 0003:00043534       coinbronze_char_6
 0003:00043934       coinbronze_char_7
 0003:00043D34       coinsilver_frames
 0003:00043DB8       coinsilver_info_0
 0003:00043DC4       coinsilver_info_1
 0003:00043DD0       coinsilver_info_2
 0003:00043DDC       coinsilver_info_3
 0003:00043DE8       coinsilver_info_4
 0003:00043DF4       coinsilver_info_5
 0003:00043E00       coinsilver_info_6
 0003:00043E0C       coinsilver_info_7
 0003:00043E18       coinsilver_char_0
 0003:00044218       coinsilver_char_1
 0003:00044618       coinsilver_char_2
 0003:00044A18       coinsilver_char_3
 0003:00044E18       coinsilver_char_4
 0003:00045218       coinsilver_char_5
 0003:00045618       coinsilver_char_6
 0003:00045A18       coinsilver_char_7
 0003:00045E18       coingold_frames
 0003:00045E9C       coingold_info_0
 0003:00045EA8       coingold_info_1
 0003:00045EB4       coingold_info_2
 0003:00045EC0       coingold_info_3
 0003:00045ECC       coingold_info_4
 0003:00045ED8       coingold_info_5
 0003:00045EE4       coingold_info_6
 0003:00045EF0       coingold_info_7
 0003:00045EFC       coingold_char_0
 0003:000462FC       coingold_char_1
 0003:000466FC       coingold_char_2
 0003:00046AFC       coingold_char_3
 0003:00046EFC       coingold_char_4
 0003:000472FC       coingold_char_5
 0003:000476FC       coingold_char_6
 0003:00047AFC       coingold_char_7
 0003:00047EFC       coinscroll4_frames
 0003:00047F80       coinscroll4_info_0
 0003:00047F8C       coinscroll4_info_1
 0003:00047F98       coinscroll4_info_2
 0003:00047FA4       coinscroll4_info_3
 0003:00047FB0       coinscroll4_info_4
 0003:00047FBC       coinscroll4_info_5
 0003:00047FC8       coinscroll4_info_6
 0003:00047FD4       coinscroll4_info_7
 0003:00047FE0       coinscroll4_char_0
 0003:000483E0       coinscroll4_char_1
 0003:000487E0       coinscroll4_char_2
 0003:00048BE0       coinscroll4_char_3
 0003:00048FE0       coinscroll4_char_4
 0003:000493E0       coinscroll4_char_5
 0003:000497E0       coinscroll4_char_6
 0003:00049BE0       coinscroll4_char_7
 0003:00049FE0       small_snowballsnapshot_frames
 0003:00049FF4       small_snowballsnapshot_info_0
 0003:0004A024       small_snowballsnapshot_char_0
 0003:0004C424       small_dawn_duel_frames
 0003:0004C438       small_dawn_duel_info_0
 0003:0004C468       small_dawn_duel_char_0
 0003:0004E868       small_magma_mainland_frames
 0003:0004E87C       small_magma_mainland_info_0
 0003:0004E8AC       small_magma_mainland_char_0
 0003:00050CAC       coinscroll5_frames
 0003:00050D30       coinscroll5_info_0
 0003:00050D3C       coinscroll5_info_1
 0003:00050D48       coinscroll5_info_2
 0003:00050D54       coinscroll5_info_3
 0003:00050D60       coinscroll5_info_4
 0003:00050D6C       coinscroll5_info_5
 0003:00050D78       coinscroll5_info_6
 0003:00050D84       coinscroll5_info_7
 0003:00050D90       coinscroll5_char_0
 0003:00051190       coinscroll5_char_1
 0003:00051590       coinscroll5_char_2
 0003:00051990       coinscroll5_char_3
 0003:00051D90       coinscroll5_char_4
 0003:00052190       coinscroll5_char_5
 0003:00052590       coinscroll5_char_6
 0003:00052990       coinscroll5_char_7
 0003:00052D90       bright_text_frames
 0003:00052DA4       bright_text_info_0
 0003:00053008       bright_text_char_0
 0003:00053CC8       chr_ascii
 0003:000558CC       AGBPrintInit
 0003:00055954       AGBPutcInternal
 0003:00055A40       AGBPutc
 0003:00055AA0       AGBPrint
 0003:00055AFC       AGBPrintf
 0003:00055B40       AGBPrintTransferDataInternal
 0003:00055C18       AGBPrintFlush1Block
 0003:00055C28       AGBPrintFlush
 0003:00055C38       AGBAssert
 0003:00055C7C       Div
 0003:00055C80       memcpy
 0003:00055CE4       memset
 0003:00055D3C       vsprintf
 0003:00055D74       __sprint
 0003:00055D98       __sbprintf
 0003:00055E10       vfprintf
 0003:00055E28       _vfprintf_r
 0003:00055FA0       jpt_8058F2C
 0003:00056D8C       cvt
 0003:00056E84       exponent
 0003:00056EF8       __swsetup
 0003:00056FA8       quorem
 0003:00057108       _dtoa_r
 0003:000573E0       jpt_805A37A
 0003:00057E04       fflush
 0003:00057E9C       std
 0003:00057ED8       __sfmoreglue
 0003:00057F0C       __sfp
 0003:00057F84       _cleanup_r
 0003:00057F94       _cleanup
 0003:00057FA8       __sinit
 0003:0005800C       _free_r
 0003:000581D0       _malloc_trim_r
 0003:00058294       __sfvwrite
 0003:000584C4       _fwalk
 0003:00058508       _setlocale_r
 0003:00058548       _localeconv_r
 0003:00058550       setlocale
 0003:00058568       localeconv
 0003:0005857C       __smakebuf
 0003:0005865C       malloc_extend_top
 0003:000587BC       _malloc_r
 0003:00058B80       _mbtowc_r
 0003:00058BAC       memchr
 0003:00058C30       memmove
 0003:00058CBC       __malloc_lock
 0003:00058CC0       __malloc_unlock
 0003:00058CC4       _Balloc
 0003:00058D20       _Bfree
 0003:00058D38       _multadd
 0003:00058DD4       _s2b
 0003:00058E5C       _hi0bits
 0003:00058EB4       _lo0bits
 0003:00058F38       _i2b
 0003:00058F50       _multiply
 0003:000590C0       _pow5mult
 0003:0005915C       _lshift
 0003:00059200       __mcmp
 0003:00059244       __mdiff
 0003:00059338       _ulp
 0003:00059388       _b2d
 0003:00059448       _d2b
 0003:00059534       _ratio
 0003:00059588       _mprec_log10
 0003:000595CC       isinf
 0003:000595F0       isnan
 0003:00059610       _sbrk_r
 0003:00059640       __sread
 0003:00059678       __swrite
 0003:000596BC       __sseek
 0003:00059700       __sclose
 0003:00059714       strcmp
 0003:00059774       strlen
 0003:000597BC       findslot
 0003:000597DC       remap_handle
 0003:00059828       initialise_monitor_handles
 0003:0005989C       get_errno
 0003:000598B4       error
 0003:000598CC       wrap
 0003:000598E8       _swiread
 0003:00059910       _read
 0003:0005995C       _swilseek
 0003:000599E4       _lseek
 0003:000599F4       _swiwrite
 0003:00059A1C       _write
 0003:00059A6C       _swiopen
 0003:00059B10       _open
 0003:00059B24       _swiclose
 0003:00059B5C       _close
 0003:00059B6C       _exit
 0003:00059B8C       _kill
 0003:00059BAC       _getpid
 0003:00059BB0       _sbrk
 0003:00059BEC       buf
 0003:00059BF0       _fstat
 0003:00059BFC       _unlink
 0003:00059C04       _raise
 0003:00059C08       _gettimeofday
 0003:00059C38       _times
 0003:00059C60       _write_r
 0003:00059C94       _calloc_r
 0003:00059CF0       _close_r
 0003:00059D20       __errno
 0003:00059D2C       _fstat_r
 0003:00059D5C       abort
 0003:00059D7C       isatty
 0003:00059D80       alarm
 0003:00059D84       _lseek_r
 0003:00059DB8       _read_r
 0003:00059DEC       _call_via_r0
 0003:00059DF0       _call_via_r1
 0003:00059DF4       _call_via_r2
 0003:00059DF8       _call_via_r3
 0003:00059DFC       _call_via_r4
 0003:00059E00       _call_via_r5
 0003:00059E04       _call_via_r6
 0003:00059E08       _call_via_r7
 0003:00059E0C       _call_via_r8
 0003:00059E10       _call_via_r9
 0003:00059E14       _call_via_sl
 0003:00059E18       _call_via_fp
 0003:00059E1C       _call_via_ip
 0003:00059E20       _call_via_sp
 0003:00059E24       _call_via_lr
 0003:00059E28       __muldi3
 0003:00059E9C       __umodsi3
 0003:00059EA8       Over1
 0003:00059EAE       Loop1
 0003:00059EBC       Lbignum
 0003:00059EBE       Loop2
 0003:00059ECC       Loop3
 0003:00059ED4       Over2
 0003:00059EE6       Over3
 0003:00059EF8       Over4
 0003:00059F0A       Over5
 0003:00059F18       Over6
 0003:00059F24       Over7
 0003:00059F32       Over8
 0003:00059F40       Over9
 0003:00059F4E       Over10
 0003:00059F52       Ldiv0
 0003:00059F5C       __pack_d
 0003:0005A0A8       __unpack_d
 0003:0005A184       _fpadd_parts
 0003:0005A3F4       __adddf3
 0003:0005A428       __subdf3
 0003:0005A464       __muldf3
 0003:0005A710       __divdf3
 0003:0005A89C       __fpcmp_parts_d
 0003:0005A9A0       __cmpdf2
 0003:0005A9D0       __eqdf2
 0003:0005AA20       __nedf2
 0003:0005AA70       __gtdf2
 0003:0005AAC0       __gedf2
 0003:0005AB10       __ltdf2
 0003:0005AB60       __ledf2
 0003:0005ABB0       __floatsidf
 0003:0005AC30       __fixdfsi
 0003:0005ACA4       __negdf2
 0003:0005ACCC       __make_dp
 0003:0005ACF4       __truncdfsf2
 0003:0005AD3C       __pack_f
 0003:0005ADF8       __unpack_f
 0003:0005AE78       _fpadd_parts_0
 0003:0005AFF8       __addsf3
 0003:0005B028       __subsf3
 0003:0005B060       __mulsf3
 0003:0005B1C8       __divsf3
 0003:0005B2B8       __fpcmp_parts_f
 0003:0005B3A0       __cmpsf2
 0003:0005B3CC       __eqsf2
 0003:0005B418       __nesf2
 0003:0005B464       __gtsf2
 0003:0005B4B0       __gesf2
 0003:0005B4FC       __ltsf2
 0003:0005B548       __lesf2
 0003:0005B594       __floatsisf
 0003:0005B5F4       __fixsfsi
 0003:0005B660       __negsf2
 0003:0005B688       __make_fp
 0003:0005B6A0       __extendsfdf2
 0003:0005B6D0       __div0
 0003:0005B6D4       __lshrdi3
 0003:0005B70C       __negdi2
 0004:00000000       tab_sin
 0004:00000202       tab_tan
 0004:00000402       tab_asin
 0004:00000604       tab_atan
 0004:00000806       tab_oneovercosfromsin
 0004:00000A08       tab_oneoverx
 0004:00010A08       aSStart
 0004:00010A14       aAgbmain
 0004:00010A1C       aSEnterMainLoop
 0004:00010A34       aAssertionFaile
 0004:00010A64       aSrcMain_c
 0004:00010A70       aSys_modeNull
 0004:00010A84       aSMainLoopFinis
 0004:00010AAC       aSLevelI
 0004:00010ABC       aGame_init
 0004:00010AC8       aSQuit
 0004:00010AD4       aGame_process
 0004:00010AE4       aSRestart
 0004:00010AF4       aSSetupLogo
 0004:00010B04       aLogo_init
 0004:00010B10       aAssertionFai_0
 0004:00010B40       aSrcObject_c
 0004:00010B50       aONull
 0004:00010B5C       aOv_flagsOOf_ac
 0004:00010B74       aOv_flagsOOf__0
 0004:00010B8C       aObject_process
 0004:00010BA8       aOv_flagsOOf__1
 0004:00010BC0       aOv_flagsOOf_dr
 0004:00010BD8       aOv_flagsOOf_re
 0004:00010BF0       aOv_flagsOOf__3
 0004:00010C08       aType0
 0004:00010C14       aTypeObj_num
 0004:00010C24       aOv_flagsOOf_sp
 0004:00010C40       aOv_flagsOOf__2
 0004:00010C58       aBlend
 0004:00010C60       aPlayer
 0004:00010C68       aLevel
 0004:00010C70       aDesert03
 0004:00010C80       aDesert02
 0004:00010C90       aDesert01
 0004:00010CA0       aDesert00
 0004:00010CB0       aSwamp03
 0004:00010CC0       aSwamp02
 0004:00010CD0       aSwamp01
 0004:00010CE0       aSwamp00
 0004:00010CF0       aJungle03
 0004:00010D00       aJungle02
 0004:00010D10       aJungle01
 0004:00010D20       aJungle00
 0004:00010D30       aHaunted03
 0004:00010D40       aHaunted02
 0004:00010D50       aHaunted01
 0004:00010D60       aHaunted00
 0004:00010D70       aFarm04
 0004:00010D80       aFarm03
 0004:00010D90       aFarm02
 0004:00010DA0       aFarm01
 0004:00010DB0       aFarm00
 0004:00010DC0       aLake03
 0004:00010DD0       aLake02
 0004:00010DE0       aLake01
 0004:00010DF0       aLake00
 0004:00010E00       aKeep03
 0004:00010E10       aKeep02
 0004:00010E20       aKeep01
 0004:00010E30       aKeep00
 0004:00010E40       aSnow03
 0004:00010E50       aSnow02
 0004:00010E60       aSnow01
 0004:00010E70       aSnow00
 0004:00010E80       aLava02
 0004:00010E90       aLava01
 0004:00010EA0       aLava00
 0004:00010EB0       aBeach03
 0004:00010EC0       aBeach02
 0004:00010ED0       aBeach01
 0004:00010EE0       aBeach00
 0004:00010EF0       aDown
 0004:00010EF8       aUp
 0004:00010F00       aAlpha
 0004:00010F08       aOff
 0004:00010F10       aDiddyKongPilot
 0004:00010F24       aAssertionFai_1
 0004:00010F54       aSrcSprite_c
 0004:00010F64       aAAni_num
 0004:00010F70       aAssertionFai_2
 0004:00010FA0       aSrcAct_player_
 0004:00010FB4       aONull_0
 0004:00010FC0       aFalse
 0004:00010FC8       aTNull
 0004:00010FD4       player_voice_fx
 0004:00011154       aOv_player_char
 0004:00011170       aAssertionFai_3
 0004:000111A0       aSrcAct_comp_pl
 0004:000111B8       aONull_1
 0004:000111C4       aAddedPointDDDD
 0004:000111EC       aCannotAddAnyMo
 0004:00011208       aAssertionFai_4
 0004:00011238       aSrcAct_camera_
 0004:0001124C       aONull_2
 0004:00011258       a0
 0004:0001125C       aOv_typeOObj_ca
 0004:00011278       aAssertionFai_5
 0004:000112A8       aSrcAct_null_c
 0004:000112B8       aONull_3
 0004:000112C4       aAssertionFai_6
 0004:000112F4       aSrcAct_static_
 0004:00011308       aONull_4
 0004:00011314       aTNull_0
 0004:00011320       aAssertionFai_7
 0004:00011350       aSrcAct_hud_c
 0004:00011360       aONull_5
 0004:0001136C       aAssertionFai_8
 0004:0001139C       aSrcAct_keep_c
 0004:000113AC       aONull_6
 0004:000113B8       aTNull_1
 0004:000113C4       aAssertionFai_9
 0004:000113F4       aSrcAct_farm_c
 0004:00011404       aONull_7
 0004:00011410       aTNull_2
 0004:0001141C       aAssertionFa_10
 0004:0001144C       aSrcAct_haunted
 0004:00011460       aONull_8
 0004:0001146C       aTNull_3
 0004:00011478       aAssertionFa_11
 0004:000114A8       aSrcAct_bounce_
 0004:000114C0       aONull_9
 0004:000114CC       aTNull_4
 0004:000114D8       a_globalLabel_h
 0004:000114F0       a_align
 0004:000114FC       aPathPoints
 0004:0001150C       aLabel_here
 0004:0001151C       a_wordDNumberOf
 0004:0001153C       a_word0x_8x0x_8
 0004:0001155C       a_wordD
 0004:00011568       a_end
 0004:00011570       aNotEnoughPoint
 0004:00011590       aAssertionFa_12
 0004:000115C0       aSrcCamera_pan_
 0004:000115D4       aCur_pt1Cur_pt2
 0004:000115F8       aPtsCur_pt_segs
 0004:00011610       aAssertionFa_13
 0004:00011640       aSrcAct_beacon_
 0004:00011654       aONull_10
 0004:00011660       aTNull_5
 0004:0001166C       aAssertionFa_14
 0004:0001169C       aSrcAct_powerup
 0004:000116B0       aONull_11
 0004:000116BC       aTNull_6
 0004:000116C8       aAssertionFa_15
 0004:000116F8       aSrcAct_startho
 0004:0001170C       aONull_12
 0004:00011718       aAssertionFa_16
 0004:00011748       aSrcAct_startpo
 0004:0001175C       aONull_13
 0004:00011768       aIdx4
 0004:00011770       aAssertionFa_17
 0004:000117A0       aSrcAct_beachhu
 0004:000117B4       aONull_14
 0004:000117C0       aTNull_7
 0004:000117CC       aAssertionFa_18
 0004:000117FC       aSrcAct_bonusit
 0004:00011810       aONull_15
 0004:0001181C       aTNull_8
 0004:00011828       aAssertionFa_19
 0004:00011858       aSrcAct_banana_
 0004:0001186C       aONull_16
 0004:00011878       aTNull_9
 0004:00011884       aAssertionFa_20
 0004:000118B4       aSrcAct_pylon_c
 0004:000118C4       aONull_17
 0004:000118D0       aTNull_10
 0004:000118DC       aAssertionFa_21
 0004:0001190C       aSrcAct_race_mo
 0004:00011924       aCompare_positi
 0004:0001194C       aCompare_posi_0
 0004:00011974       aCompare_posi_1
 0004:0001199C       aONull_18
 0004:000119A8       aAssertionFa_22
 0004:000119D8       aSrcAct_tideani
 0004:000119EC       aONull_19
 0004:000119F8       boost_pow
 0004:00011A0C       boost_dur
 0004:00011A20       boost_stars
 0004:00011A48       aAssertionFa_23
 0004:00011A78       aSrcPlane_c
 0004:00011A84       aONull_20
 0004:00011A90       aAssertionFa_24
 0004:00011AC0       aSrcAct_groundb
 0004:00011AD8       aONull_21
 0004:00011AE4       aTNull_11
 0004:00011AF0       aAssertionFa_25
 0004:00011B20       aSrcAct_fader_c
 0004:00011B30       aONull_22
 0004:00011B3C       aAssertionFa_26
 0004:00011B6C       aSrcAct_directi
 0004:00011B88       aONull_23
 0004:00011B94       aTNull_12
 0004:00011BA0       aAssertionFa_27
 0004:00011BD0       aSrcAct_boost_c
 0004:00011BE0       aONull_24
 0004:00011BEC       aTNull_13
 0004:00011BF8       aAssertionFa_28
 0004:00011C28       aSrcAct_pause_c
 0004:00011C38       aONull_25
 0004:00011C44       aAssertionFa_29
 0004:00011C74       aSrcAct_beach_c
 0004:00011C84       aONull_26
 0004:00011C90       aTNull_14
 0004:00011C9C       aAssertionFa_30
 0004:00011CCC       aSrcAct_weapon_
 0004:00011CE0       aONull_27
 0004:00011CEC       aTNull_15
 0004:00011CF8       boost_dur.24
 0004:00011D0C       boost_stars.25
 0004:00011D34       aAssertionFa_31
 0004:00011D64       aSrcAct_swamp_c
 0004:00011D74       aONull_28
 0004:00011D80       aTNull_16
 0004:00011D8C       aAssertionFa_32
 0004:00011DBC       aSrcAct_jungle_
 0004:00011DD0       aONull_29
 0004:00011DDC       aTNull_17
 0004:00011DE8       audio_buff0_ref
 0004:00011DEC       audio_noise0_ref
 0004:00011DF0       audio_buff1_ref
 0004:00011DF4       audio_noise1_ref
 0004:00011DF8       audio_chan_sizexmax_polyphonyxnum_midi_channels
 0004:00011DFC       audio_chan_sizexmax_polyphony
 0004:00011E00       audio_chan_sizexmax_fx
 0004:00011E04       audio_max_fx
 0004:00011E08       audio_overflow_noise
 0004:00011E0C       audio_max_polyphony
 0004:00011E10       aAssertionFa_33
 0004:00011E40       aSrcMenuMenu_te
 0004:00011E58       aIndexNum_handl
 0004:00011E6C       aLengthMax_char
 0004:00011E80       aIndex0
 0004:00011E8C       aHandleUsed
 0004:00011E9C       aIndex
 0004:00011EA4       aAssertionFa_34
 0004:00011ED4       aSrcMenuMenu_an
 0004:00011EEC       aIndexNum_anim_
 0004:00011F04       aIndex0IndexNum
 0004:00011F38       aMakingPlaneD
 0004:000122C8       aDDDDD
 0004:000122DC       spr_xc
 0004:000122E8       spr_yc
 0004:000122F4       frx
 0004:000123F5       fry
 0004:000124F8       __pal_beach_lvl
 0004:000126F8       __pal_beach_sky
 0004:000128F8       __pal_beach_scene
 0004:00012AF8       __pal_farm_lvl
 0004:00012CF8       __pal_farm_sky
 0004:00012EF8       __pal_haunted_lvl
 0004:000130F8       __pal_haunted_sky
 0004:000132F8       __pal_jungle_sky
 0004:000134F8       __pal_jungle_lvl
 0004:000136F8       __pal_keep_lvl
 0004:000138F8       __pal_keep_sky
 0004:00013AF8       __pal_lake_lvl
 0004:00013CF8       __pal_lake_sky
 0004:00013EF8       __pal_lava_lvl
 0004:000140F8       __pal_lava_sky
 0004:000142F8       __pal_snow_lvl
 0004:000144F8       __pal_snow_sky
 0004:000146F8       __pal_swamp_sky
 0004:000148F8       __pal_swamp_lvl
 0004:00014AF8       __pal_test_lvl
 0004:00014CF8       __pal_test_sky
 0004:00014EF8       __pal_valley_lvl
 0004:000150F8       __pal_desert_sky
 0004:000152F8       __pal_desert_lvl
 0004:000154F8       __chr_dkp
 0004:000667FA       __chr_beach_scene
 0004:0006FCFC       __chr_beach_sky
 0004:0006FE30       __chr_farm_sky
 0004:0006FFE4       __chr_haunted_sky
 0004:000701E4       __chr_keep_sky
 0004:000703BC       __chr_lake_sky
 0004:000705BC       __chr_lava_sky
 0004:000707B0       __chr_snow_sky
 0004:000709B0       __chr_jungle_sky
 0004:00070BA8       __chr_desert_sky
 0004:00070D94       __chr_swamp_sky
 0004:00070F94       __chr_beach_00_lvl
 0004:0007115C       __chr_beach_01_lvl
 0004:0007136C       __chr_beach_02_lvl
 0004:00071544       __chr_beach_03_lvl
 0004:00071550       __chr_farm_00_lvl
 0004:00071748       __chr_farm_01_lvl
 0004:00071950       __chr_farm_02_lvl
 0004:0007195C       __chr_farm_03_lvl
 0004:00071AD0       __chr_farm_04_lvl
 0004:00071CA4       __chr_farm_05_lvl
 0004:00071DF8       __chr_haunted_00_lvl
 0004:00071FEC       __chr_haunted_01_lvl
 0004:000721AC       __chr_haunted_02_lvl
 0004:0007236C       __chr_haunted_03_lvl
 0004:00072568       __chr_keep_00_lvl
 0004:000726CC       __chr_keep_01_lvl
 0004:00072844       __chr_keep_02_lvl
 0004:00072900       __chr_keep_03_lvl
 0004:00072A78       __chr_lake_00_lvl
 0004:00072C7C       __chr_lake_01_lvl
 0004:00072DF0       __chr_lake_02_lvl
 0004:00072DFC       __chr_lake_03_lvl
 0004:00072E08       __chr_lava_00_lvl
 0004:00072F34       __chr_lava_01_lvl
 0004:00073018       __chr_lava_02_lvl
 0004:00073024       __chr_snow_00_lvl
 0004:00073204       __chr_snow_01_lvl
 0004:000733AC       __chr_snow_02_lvl
 0004:000733B8       __chr_snow_03_lvl
 0004:00073554       __chr_jungle_00_lvl
 0004:0007375C       __chr_jungle_01_lvl
 0004:00073964       __chr_jungle_02_lvl
 0004:00073978       __chr_jungle_03_lvl
 0004:000739B8       __chr_desert_00_lvl
 0004:00073A0C       __chr_desert_01_lvl
 0004:00073B90       __chr_desert_02_lvl
 0004:00073B9C       __chr_desert_03_lvl
 0004:00073BA8       __chr_swamp_00_lvl
 0004:00073DB4       __chr_swamp_01_lvl
 0004:00073EF0       __chr_swamp_02_lvl
 0004:000740F4       __chr_swamp_03_lvl
 0004:000740FE       __frs_dkp
 0004:00093353       aOz5
 0004:000B162E       __map_beach_scene
 0004:000B1B32       __map_beach_00_sky
 0004:000B1CB6       __map_beach_00_gnd
 0004:000B1D3A       __map_beach_00_lvl
 0004:000B253E       __map_beach_01_lvl
 0004:000B2D42       __map_beach_02_lvl
 0004:000B3546       __map_beach_03_lvl
 0004:000B3D4A       __map_farm_00_sky
 0004:000B3ECE       __map_farm_00_gnd
 0004:000B3F52       __map_farm_00_lvl
 0004:000B4756       __map_farm_01_lvl
 0004:000B4F5A       __map_farm_02_lvl
 0004:000B575E       __map_farm_03_lvl
 0004:000B5F62       __map_farm_04_lvl
 0004:000B6766       __map_farm_05_lvl
 0004:000B6F6A       __map_haunted_00_sky
 0004:000B70EE       __map_haunted_00_gnd
 0004:000B7172       __map_haunted_00_lvl
 0004:000B7976       __map_haunted_01_lvl
 0004:000B817A       __map_haunted_02_lvl
 0004:000B897E       __map_haunted_03_lvl
 0004:000B9182       __map_jungle_00_sky
 0004:000B9306       __map_jungle_00_gnd
 0004:000B938A       __map_jungle_00_lvl
 0004:000B9B8E       __map_jungle_01_lvl
 0004:000BA392       __map_jungle_02_lvl
 0004:000BAB96       __map_jungle_03_lvl
 0004:000BB39A       __map_keep_00_sky
 0004:000BB51E       __map_keep_00_gnd
 0004:000BB5A2       __map_keep_00_lvl
 0004:000BBDA6       __map_keep_01_lvl
 0004:000BC5AA       __map_keep_02_lvl
 0004:000BCDAE       __map_keep_03_lvl
 0004:000BD5B2       __map_lake_00_sky
 0004:000BD736       __map_lake_00_gnd
 0004:000BD7BA       __map_lake_00_lvl
 0004:000BDFBE       __map_lake_01_lvl
 0004:000BE7C2       __map_lake_02_lvl
 0004:000BEFC6       __map_lake_03_lvl
 0004:000BF7CA       __map_lava_00_sky
 0004:000BF94E       __map_lava_00_gnd
 0004:000BF9D2       __map_lava_00_lvl
 0004:000C01D6       __map_lava_01_lvl
 0004:000C09DA       __map_lava_02_lvl
 0004:000C11DE       __map_snow_00_sky
 0004:000C1362       __map_snow_00_gnd
 0004:000C13E6       __map_snow_00_lvl
 0004:000C1BEA       __map_snow_01_lvl
 0004:000C23EE       __map_snow_02_lvl
 0004:000C2BF2       __map_snow_03_lvl
 0004:000C33F6       __map_desert_00_sky
 0004:000C357A       __map_desert_00_gnd
 0004:000C35FE       __map_desert_00_lvl
 0004:000C3E02       __map_desert_01_lvl
 0004:000C4606       __map_desert_02_lvl
 0004:000C4E0A       __map_desert_03_lvl
 0004:000C560E       __map_swamp_00_sky
 0004:000C5792       __map_swamp_00_gnd
 0004:000C5816       __map_swamp_00_lvl
 0004:000C601A       __map_swamp_01_lvl
 0004:000C681E       __map_swamp_02_lvl
 0004:000C7022       __map_swamp_03_lvl
 0004:000C7828       background_hanger_plt
 0004:000C7A28       background_hanger_num_chars
 0004:000C7A2C       background_hanger_chars
 0004:000CF7AC       background_hanger_map_size_x
 0004:000CF7AE       background_hanger_map_size_y
 0004:000CF7B0       background_hanger_map
 0004:000CFC60       background_tournament_small_plt
 0004:000CFE60       background_tournament_small_num_chars
 0004:000CFE64       background_tournament_small_chars
 0004:000D7CA4       background_tournament_small_map_size_x
 0004:000D7CA6       background_tournament_small_map_size_y
 0004:000D7CA8       background_tournament_small_map
 0004:000D8158       mode_select_border_plt
 0004:000D8358       mode_select_border_num_chars
 0004:000D835C       mode_select_border_chars
 0004:000D885C       mode_select_border_map_size_x
 0004:000D885E       mode_select_border_map_size_y
 0004:000D8860       mode_select_border_map
 0004:000D89B2       diddysmall1_plt
 0004:000D8BB2       diddysmall1_num_chars
 0004:000D8BB6       diddysmall1_chars
 0004:000DC376       diddysmall1_map_size_x
 0004:000DC378       diddysmall1_map_size_y
 0004:000DC37A       diddysmall1_map
 0004:000DC63A       crankysmall_plt
 0004:000DC83A       crankysmall_num_chars
 0004:000DC83E       crankysmall_chars
 0004:000E07BE       crankysmall_map
 0004:000E0A7E       kongsmall_plt
 0004:000E0C7E       kongsmall_num_chars
 0004:000E0C82       kongsmall_chars
 0004:000E3F02       kongsmall_map
 0004:000E41C2       krunchsmall_plt
 0004:000E43C2       krunchsmall_num_chars
 0004:000E43C6       krunchsmall_chars
 0004:000E66C6       krunchsmall_map
 0004:000E6986       kroolsmall_plt
 0004:000E6B86       kroolsmall_num_chars
 0004:000E6B8A       kroolsmall_chars
 0004:000EA64A       kroolsmall_map
 0004:000EA90A       dixieysmall_plt
 0004:000EAB0A       dixieysmall_num_chars
 0004:000EAB0E       dixieysmall_chars
 0004:000ED10E       dixieysmall_map
 0004:000ED3CE       background_study_plt
 0004:000ED5CE       background_study_num_chars
 0004:000ED5D2       background_study_chars
 0004:000F5292       background_study_map
 0004:000F5742       background_dogfight_plt
 0004:000F5942       background_dogfight_num_chars
 0004:000F5946       background_dogfight_chars
 0004:000FD306       background_dogfight_map
 0004:000FD7B6       background_time_plt
 0004:000FD9B6       background_time_num_chars
 0004:000FD9BA       background_time_chars
 0004:0010597A       background_time_map
 0004:00105E2C       jap_warning_plt
 0004:0010602C       jap_warning_num_chars
 0004:00106030       jap_warning_chars
 0004:001077F0       jap_warning_map_size_x
 0004:001077F2       jap_warning_map_size_y
 0004:001077F4       jap_warning_map
 0004:001078D4       jap_bright_text_data
 0004:00108594       jap_bright_text_plt
 0004:001085B4       jap_dark_text_plt
 0004:001085D4       __pal_introanim
 0004:001085F4       __pal_introanim2
 0004:00108614       __pal_introanim3
 0004:00108634       __pal_introanim4
 0004:00108654       __pal_bright_text
 0004:00108674       __pal_dark_text
 0004:00108694       __pal_small_beach_barricade
 0004:00108894       __pal_handcoin
 0004:00108A94       __pal_qmarkcoin
 0004:00108C94       __pal_select_screen_text2
 0004:00108E94       __pal_hair_raising_rescue
 0004:00109094       __pal_small_chickenrun
 0004:00109294       __pal_small_not_used
 0004:00109494       __pal_small_crab_beach
 0004:00109694       __pal_small_fishbeach
 0004:00109894       __pal_small_fly_like_the_wind
 0004:00109A94       __pal_small_hatch_match
 0004:00109C94       __pal_small_haunted
 0004:00109E94       __pal_small_jungle_dogfight
 0004:0010A094       __pal_small_focal_feud
 0004:0010A294       __pal_small_grubgrab
 0004:0010A494       __pal_small_krools_darktower
 0004:0010A694       __pal_small_peaceful_passage
 0004:0010A894       __pal_small_wasteland_wipeout
 0004:0010AA94       __pal_coinbronze
 0004:0010AC94       __pal_coinsilver
 0004:0010AE94       __pal_coingold
 0004:0010B094       __pal_coinscroll4
 0004:0010B294       __pal_small_snowballsnapshot
 0004:0010B494       __pal_small_dawn_duel
 0004:0010B694       __pal_small_magma_mainland
 0004:0010B894       __pal_coinscroll5
 0004:0010BA94       tab_levels
 0004:0010C07C       tab_sprites
 0004:0010C46C       tab_palettes
 0004:0010C5DC       tab_classes
 0004:0010C9AC       tab_types
 0004:0010CB3C       tab_animations
 0004:0010CB7C       __ani_diamond
 0004:0010CB8B       __ani_star
 0004:0010CB9E       __ani_banana
 0004:0010CBAD       __ani_mine
 0004:0010CBBB       __ani_hut_shot
 0004:0010CBD3       __ani_igloo
 0004:0010CBF1       __ani_wigwam
 0004:0010CC0D       __ani_fire
 0004:0010CC1C       __ani_flag
 0004:0010CC2B       __ani_hud_banana
 0004:0010CC3A       __ani_farm_chicken
 0004:0010CC49       __ani_loop4_8
 0004:0010CC58       __ani_loop4_16
 0004:0010CC6F       __ani_splat
 0004:0010CC85       __ani_jungle_worm
 0004:0010CCA0       __spr_diddyframesshort
 0004:00119CA0       __spr_diddyframesshort_01
 0004:0011E650       __spr_diddyframesshort_02
 0004:00120520       __spr_kongframesshort
 0004:0012CDB0       __spr_kongframesshort_01
 0004:001313B0       __spr_kongframesshort_02
 0004:00133350       __spr_dixieyframesshort
 0004:0013E510       __spr_dixieyframesshort_01
 0004:00142520       __spr_dixieyframesshort_02
 0004:001442F0       __spr_krunchframesshort
 0004:0014E9A0       __spr_krunchframesshort_01
 0004:00152700       __spr_krunchframesshort_02
 0004:001543F0       __spr_crankyframesshort
 0004:00160340       __spr_crankyframesshort_01
 0004:00164790       __spr_crankyframesshort_02
 0004:001664C0       __spr_kroolframesshort
 0004:001759D0       __spr_kroolframesshort_01
 0004:0017B050       __spr_kroolframesshort_02
 0004:0017D120       __spr_shadow_circle
 0004:0017DCF0       __spr_shadow_circle_01
 0004:0017E2E0       __spr_shadow_circle_02
 0004:0017E600       __spr_banana
 0004:0017FCF0       __spr_banana_01
 0004:001805F0       __spr_banana_02
 0004:00180A10       __spr_banana16
 0004:00180E30       __spr_banana16_01
 0004:00181020       __spr_banana16_02
 0004:00181190       __spr_fire5
 0004:00185430       __spr_fire5_01
 0004:00186780       __spr_fire5_02
 0004:00186DA0       __spr_star
 0004:00189C90       __spr_star_01
 0004:0018AD60       __spr_star_02
 0004:0018B410       __spr_start_dot
 0004:0018B5C0       __spr_start_dot_01
 0004:0018B680       __spr_start_dot_02
 0004:0018B6E0       __spr_start_sign
 0004:0018BA90       __spr_start_sign_01
 0004:0018BBC0       __spr_start_sign_02
 0004:0018BC40       __spr_mine
 0004:0018CD80       __spr_mine_01
 0004:0018D340       __spr_mine_02
 0004:0018D5E0       __spr_eggbig
 0004:0018E0F0       __spr_eggbig_01
 0004:0018E4C0       __spr_eggbig_02
 0004:0018E620       __spr_gunhut
 0004:001954C0       __spr_gunhut_01
 0004:00197770       __spr_gunhut_02
 0004:001982C0       __spr_1st
 0004:00198830       __spr_1st_01
 0004:001989E0       __spr_1st_02
 0004:00198A80       __spr_finallap
 0004:00199100       __spr_finallap_01
 0004:00199310       __spr_finallap_02
 0004:001993D0       __spr_finish
 0004:00199890       __spr_finish_01
 0004:00199A30       __spr_finish_02
 0004:00199AE0       __spr_getready
 0004:0019A180       __spr_getready_01
 0004:0019A3A0       __spr_getready_02
 0004:0019A460       __spr_go
 0004:0019A7C0       __spr_go_01
 0004:0019A8F0       __spr_go_02
 0004:0019A970       __spr_lap2
 0004:0019ADC0       __spr_lap2_01
 0004:0019AFA0       __spr_lap2_02
 0004:0019B050       __spr_logocoin
 0004:0019D8E0       __spr_logocoin_01
 0004:0019E680       __spr_logocoin_02
 0004:0019EB70       __spr_hut
 0004:001A02C0       __spr_hut_01
 0004:001A0B40       __spr_hut_02
 0004:001A0EE0       __spr_palmtree2
 0004:001A14D0       __spr_palmtree2_01
 0004:001A16B0       __spr_palmtree2_02
 0004:001A1780       __spr_pylon2
 0004:001A1E90       __spr_pylon2_01
 0004:001A20D0       __spr_pylon2_02
 0004:001A21A0       __spr_igloo
 0004:001A5130       __spr_igloo_01
 0004:001A6020       __spr_igloo_02
 0004:001A64F0       __spr_wigwam
 0004:001A7C80       __spr_wigwam_01
 0004:001A8540       __spr_wigwam_02
 0004:001A8970       __spr_pauseoption
 0004:001A9BE0       __spr_pauseoption_01
 0004:001AA1A0       __spr_pauseoption_02
 0004:001AA390       __spr_retire
 0004:001AA900       __spr_retire_01
 0004:001AAAB0       __spr_retire_02
 0004:001AAB70       __spr_snowtree
 0004:001AB570       __spr_snowtree_01
 0004:001AB8B0       __spr_snowtree_02
 0004:001AB9E0       __spr_skull
 0004:001ABF70       __spr_skull_01
 0004:001AC190       __spr_skull_02
 0004:001AC250       __spr_pumpkin
 0004:001AC880       __spr_pumpkin_01
 0004:001ACA70       __spr_pumpkin_02
 0004:001ACB30       __spr_deadtree
 0004:001AD270       __spr_deadtree_01
 0004:001AD480       __spr_deadtree_02
 0004:001AD560       __spr_ghost
 0004:001AD9C0       __spr_ghost_01
 0004:001ADB50       __spr_ghost_02
 0004:001ADC00       __spr_farm_tree
 0004:001AE5B0       __spr_farm_tree_01
 0004:001AE8B0       __spr_farm_tree_02
 0004:001AE9E0       __spr_farm_chicken
 0004:001B0660       __spr_farm_chicken_01
 0004:001B1090       __spr_farm_chicken_02
 0004:001B1480       __spr_farm_rabbit
 0004:001B2430       __spr_farm_rabbit_01
 0004:001B2A30       __spr_farm_rabbit_02
 0004:001B2D00       __spr_flying_veg
 0004:001B4660       __spr_flying_veg_01
 0004:001B4F70       __spr_flying_veg_02
 0004:001B5300       __spr_evilghost
 0004:001BBA20       __spr_evilghost_01
 0004:001BD9C0       __spr_evilghost_02
 0004:001BE420       __spr_mushroom
 0004:001BE930       __spr_mushroom_01
 0004:001BEAE0       __spr_mushroom_02
 0004:001BEBA0       __spr_soul
 0004:001BEEC0       __spr_soul_01
 0004:001BF000       __spr_soul_02
 0004:001BF080       __spr_swamp_frog_hanging
 0004:001BF3A0       __spr_swamp_frog_hanging_01
 0004:001BF4E0       __spr_swamp_frog_hanging_02
 0004:001BF560       __spr_swamp_frog_on_pad
 0004:001BFA70       __spr_swamp_frog_on_pad_01
 0004:001BFC40       __spr_swamp_frog_on_pad_02
 0004:001BFCF0       __spr_swamp_goo_gun_mon
 0004:001C60A0       __spr_swamp_goo_gun_mon_01
 0004:001C7FC0       __spr_swamp_goo_gun_mon_02
 0004:001C8A40       __spr_swamp_target_mon_jump
 0004:001CA6F0       __spr_swamp_target_mon_jump_01
 0004:001CB060       __spr_swamp_target_mon_jump_02
 0004:001CB3D0       __spr_swamp_target_mon_hit
 0004:001CCC90       __spr_swamp_target_mon_hit_01
 0004:001CD540       __spr_swamp_target_mon_hit_02
 0004:001CD890       __spr_jungel_worm_jump
 0004:001CF2A0       __spr_jungel_worm_jump_01
 0004:001CFB90       __spr_jungel_worm_jump_02
 0004:001CFF60       __spr_mango
 0004:001D2250       __spr_mango_01
 0004:001D2E60       __spr_mango_02
 0004:001D32B0       __spr_melon
 0004:001D5A30       __spr_melon_01
 0004:001D66E0       __spr_melon_02
 0004:001D6B20       __spr_red_missile
 0004:001D6D20       __spr_red_missile_01
 0004:001D6DE0       __spr_red_missile_02
 0004:001D6E40       __spr_green_missile
 0004:001D7040       __spr_green_missile_01
 0004:001D7100       __spr_green_missile_02
 0004:001D7160       __spr_booster
 0004:001DB070       __spr_booster_01
 0004:001DBFDD       aFffuuun
 0004:001DBFE6       aZ
 0004:001DC8C0       __spr_booster_02
 0004:001DD1B0       __spr_splat
 0004:001DED30       __spr_splat_01
 0004:001DF720       __spr_splat_02
 0004:001DFBB0       __spr_candy_head
 0004:001DFD10       __spr_candy_head_01
 0004:001DFDC0       __spr_candy_head_02
 0004:001DFE20       __spr_cranky_head
 0004:001DFF90       __spr_cranky_head_01
 0004:001E0040       __spr_cranky_head_02
 0004:001E00A0       __spr_diddy_head
 0004:001E0210       __spr_diddy_head_01
 0004:001E02C0       __spr_diddy_head_02
 0004:001E0320       __spr_dixie_head
 0004:001E0480       __spr_dixie_head_01
 0004:001E0530       __spr_dixie_head_02
 0004:001E0590       __spr_donkey_head
 0004:001E06F0       __spr_donkey_head_01
 0004:001E07A0       __spr_donkey_head_02
 0004:001E0800       __spr_ghost_head
 0004:001E0970       __spr_ghost_head_01
 0004:001E0A20       __spr_ghost_head_02
 0004:001E0A80       __spr_krool_head
 0004:001E0BE0       __spr_krool_head_01
 0004:001E0C90       __spr_krool_head_02
 0004:001E0CF0       __spr_krunch_head
 0004:001E0E40       __spr_krunch_head_01
 0004:001E0EF0       __spr_krunch_head_02
 0004:001E0F50       __spr_dkbubble
 0004:001E15C0       __spr_dkbubble_01
 0004:001E17C0       __spr_dkbubble_02
 0004:001E1880       __spr_ballon
 0004:001E1D10       __spr_ballon_01
 0004:001E1EE0       __spr_ballon_02
 0004:001E1FA0       __spr_chance
 0004:001E85D0       __spr_chance_01
 0004:001EA560       __spr_chance_02
 0004:001EAF30       __spr_firtree
 0004:001EBA20       __spr_firtree_01
 0004:001EBD50       __spr_firtree_02
 0004:001EBE80       __spr_swamptree2
 0004:001EC6F0       __spr_swamptree2_01
 0004:001EC9A0       __spr_swamptree2_02
 0004:001ECA90       __spr_stonepillar
 0004:001ED240       __spr_stonepillar_01
 0004:001ED480       __spr_stonepillar_02
 0004:001ED590       __spr_target
 0004:001EE500       __spr_target_01
 0004:001EE9F0       __spr_target_02
 0004:001EEBE0       __spr_hud_map_lava_00
 0004:001EF050       __spr_hud_map_lava_01
 0004:001EF5A0       __spr_hud_map_keep_00
 0004:001EF5F0       __spr_hud_map_beach_00
 0004:001EFAB0       __spr_hud_map_beach_01
 0004:001EFFE0       __spr_hud_map_beach_02
 0004:001F0370       __spr_hud_map_lake_00
 0004:001F0710       __spr_hud_map_lake_01
 0004:001F0C40       __spr_hud_map_snow_00
 0004:001F1060       __spr_hud_map_snow_01
 0004:001F13D0       __spr_hud_map_farm_00
 0004:001F17B0       __spr_hud_map_farm_01
 0004:001F1D20       __spr_hud_map_farm_03
 0004:001F21B0       __spr_hud_map_haunted_00
 0004:001F25F0       __spr_hud_map_haunted_01
 0004:001F2C10       __spr_hud_map_haunted_02
 0004:001F2FE0       __spr_hud_map_arrows
 0004:001F3220       __pal_hud_icons
 0004:001F3240       __spr_hud_flaga
 0004:001F4230       __spr_hud_flagb
 0004:001F5160       __spr_hud_arrow
 0004:001F55A0       __spr_hud_pos
 0004:001F5CD0       __spr_hud_nums
 0004:001F6520       __spr_hud_digits
 0004:001F68E0       __spr_hud_counter
 0004:001F6CB0       __spr_shot_gfx
 0004:001F6FD0       __pal_wpn_pepo
 0004:001F6FF0       __pal_wpn_wash
 0004:001F7010       __pal_wpn_memi
 0004:001F7030       __pal_wpn_mame
 0004:001F7050       __pal_wpn_hoba
 0004:001F7070       __pal_wpn_chba
 0004:001F7090       __pal_wpn_bubo
 0004:001F70B0       __pal_wpn_babl
 0004:001F70D0       __pal_wpn_grgr
 0004:001F70F0       __pal_wpn_clgr
 0004:001F7110       __pal_wpn_baba
 0004:001F7130       __pal_wpn_sisc
 0004:001F7150       __spr_wpn_pepo
 0004:001F7380       __spr_wpn_wash
 0004:001F75B0       __spr_wpn_memi
 0004:001F77E0       __spr_wpn_mame
 0004:001F7A10       __spr_wpn_hoba
 0004:001F7C40       __spr_wpn_chba
 0004:001F7E70       __spr_wpn_bubo
 0004:001F8090       __spr_wpn_babl
 0004:001F82C0       __spr_wpn_grgr
 0004:001F84E0       __spr_wpn_clgr
 0004:001F8700       __spr_wpn_baba
 0004:001F8930       __spr_wpn_sisc
 0004:001F8B60       __pal_wpn_popi
 0004:001F8B80       __pal_wpn_chci
 0004:001F8BA0       __pal_wpn_bobl
 0004:001F8BC0       __pal_wpn_swsw
 0004:001F8BE0       __pal_wpn_prpa
 0004:001F8C00       __pal_wpn_boro
 0004:001F8C20       __pal_wpn_hiha
 0004:001F8C40       __pal_wpn_flfl
 0004:001F8C60       __pal_wpn_lodo
 0004:001F8C80       __pal_wpn_wiwo
 0004:001F8CA0       __pal_wpn_wiwe
 0004:001F8CC0       __spr_wpn_popi
 0004:001F8EE0       __spr_wpn_chci
 0004:001F9110       __spr_wpn_bobl
 0004:001F9330       __spr_wpn_swsw
 0004:001F9560       __spr_wpn_prpa
 0004:001F9790       __spr_wpn_boro
 0004:001F98F0       __spr_wpn_hiha
 0004:001F9B20       __spr_wpn_flfl
 0004:001F9D50       __spr_wpn_lodo
 0004:001F9F80       __spr_wpn_wiwo
 0004:001FA1B0       __spr_wpn_wiwe
 0004:001FA3E0       __pal_wpn_blbo
 0004:001FA400       __pal_wpn_crco
 0004:001FA420       __pal_wpn_shdi
 0004:001FA440       __pal_wpn_babu
 0004:001FA460       __pal_wpn_rodr
 0004:001FA480       __pal_wpn_rere
 0004:001FA4A0       __pal_wpn_chance
 0004:001FA4C0       __spr_wpn_blbo
 0004:001FA6F0       __spr_wpn_crco
 0004:001FA920       __spr_wpn_shdi
 0004:001FAB50       __spr_wpn_babu
 0004:001FAD80       __spr_wpn_rodr
 0004:001FAFB0       __spr_wpn_rere
 0004:001FB1E0       __spr_wpn_chance
 0004:001FB410       __pal_grad_sky_lava
 0004:001FB510       __pal_grad_sky_snow
 0004:001FB610       __pal_grad_sky_beach
 0004:001FB710       __pal_grad_sky_keep
 0004:001FB810       __pal_grad_sky_lake
 0004:001FB910       __pal_grad_sky_farm
 0004:001FBA10       __pal_grad_sky_haunted
 0004:001FBB10       __pal_grad_sky_desert
 0004:001FBC10       __pal_grad_sky_swamp
 0004:001FBD10       __pal_tide_anim
 0004:001FBF10       __pal_lake_anim
 0004:001FC110       __pal_bluepalette
 0004:001FC130       __pal_orangepalette
 0004:001FC150       __pal_redpalette
 0004:001FC170       __pal_yellowpalette
 0004:001FC190       __pal_greenpalette
 0004:001FC1B0       __pal_pylonblinkpalette
 0004:001FC1D0       __pal_diddyframesshort
 0004:001FC1F0       __pal_kongframesshort
 0004:001FC210       __pal_dixieyframesshort
 0004:001FC230       __pal_krunchframesshort
 0004:001FC250       __pal_crankyframesshort
 0004:001FC270       __pal_kroolframesshort
 0004:001FC290       __pal_fire5
 0004:001FC2B0       __pal_mine
 0004:001FC2D0       __pal_mine2
 0004:001FC2F0       __pal_eggbig
 0004:001FC310       __pal_gunhut
 0004:001FC330       __pal_crab
 0004:001FC350       __pal_logocoin
 0004:001FC370       __pal_hut
 0004:001FC390       __pal_palmtree2
 0004:001FC3B0       __pal_igloo
 0004:001FC3D0       __pal_wigwam
 0004:001FC3F0       __pal_snowtree
 0004:001FC410       __pal_skull
 0004:001FC430       __pal_pumpkin
 0004:001FC450       __pal_deadtree
 0004:001FC470       __pal_ghost
 0004:001FC490       __pal_farm_tree
 0004:001FC4B0       __pal_farm_chicken
 0004:001FC4D0       __pal_farm_rabbit
 0004:001FC4F0       __pal_flying_veg
 0004:001FC510       __pal_evilghost
 0004:001FC530       __pal_mushroom
 0004:001FC550       __pal_soul
 0004:001FC570       __pal_swamp_frog_on_pad
 0004:001FC590       __pal_swamp_goo_gun_mon
 0004:001FC5B0       __pal_jungel_worm_jump
 0004:001FC5D0       __pal_mango
 0004:001FC5F0       __pal_melon
 0004:001FC610       __pal_booster
 0004:001FC630       __pal_splat
 0004:001FC650       __pal_candy_head
 0004:001FC670       __pal_cranky_head
 0004:001FC690       __pal_diddy_head
 0004:001FC6B0       __pal_dixie_head
 0004:001FC6D0       __pal_donkey_head
 0004:001FC6F0       __pal_ghost_head
 0004:001FC710       __pal_krool_head
 0004:001FC730       __pal_krunch_head
 0004:001FC750       __pal_dkbubble
 0004:001FC770       __pal_ballon
 0004:001FC790       __pal_chance
 0004:001FC7B0       __pal_firtree
 0004:001FC7D0       __pal_swamptree2
 0004:001FC7F0       __pal_stonepillar
 0004:001FC810       __pal_swamp_target_mon
 0004:001FC890       obj_beach_00
 0004:001FCB80       obj_beach_01
 0004:001FCE50       obj_beach_02
 0004:001FCF40       obj_beach_03
 0004:001FCF50       obj_keep_00
 0004:001FD060       obj_keep_01
 0004:001FD0A0       obj_keep_02
 0004:001FD0B0       obj_keep_03
 0004:001FD0C0       obj_lava_00
 0004:001FD360       obj_lava_01
 0004:001FD400       obj_lava_02
 0004:001FD410       obj_snow_00
 0004:001FD670       obj_snow_01
 0004:001FD750       obj_snow_02
 0004:001FD760       obj_snow_03
 0004:001FD770       obj_lake_00
 0004:001FD830       obj_lake_01
 0004:001FD8D0       obj_lake_02
 0004:001FD8E0       obj_lake_03
 0004:001FD8F0       obj_farm_00
 0004:001FDCC0       obj_farm_01
 0004:001FDE30       obj_farm_02
 0004:001FDE40       obj_farm_03
 0004:001FDF00       obj_farm_04
 0004:001FDF10       obj_farm_05
 0004:001FDF50       obj_haunted_00
 0004:001FE220       obj_haunted_01
 0004:001FE520       obj_haunted_02
 0004:001FE7E0       obj_haunted_03
 0004:001FE7F0       obj_swamp_00
 0004:001FE9D0       obj_swamp_01
 0004:001FEB50       obj_swamp_02
 0004:001FEB60       obj_swamp_03
 0004:001FEB70       obj_jungle_00
 0004:001FEDA0       obj_jungle_01
 0004:001FEDB0       obj_jungle_02
 0004:001FEDC0       obj_jungle_03
 0004:001FEDD0       obj_desert_00
 0004:001FEDE0       obj_desert_01
 0004:001FEDF0       obj_desert_02
 0004:001FEE00       obj_desert_03
 0004:001FEE10       __net_beach_00
 0004:001FF3C2       __net_beach_01
 0004:001FF680       __net_beach_02
 0004:001FF6A6       __net_beach_03
 0004:001FF6A8       __net_keep_00
 0004:001FF6CE       __net_keep_01
 0004:001FF6F4       __net_keep_02
 0004:001FF71A       __net_keep_03
 0004:001FF740       __net_lava_00
 0004:001FFC96       __net_lava_01
 0004:001FFCBC       __net_lava_02
 0004:001FFCE2       __net_snow_00
 0004:0020027C       __net_snow_01
 0004:0020058A       __net_snow_02
 0004:002005B0       __net_snow_03
 0004:002005D6       __net_lake_00
 0004:002005FC       __net_lake_01
 0004:00200622       __net_lake_02
 0004:00200648       __net_lake_03
 0004:0020066E       __net_farm_00
 0004:00200C58       __net_farm_01
 0004:00200C96       __net_farm_02
 0004:00200CBC       __net_farm_03
 0004:00200CBE       __net_farm_04
 0004:00200CE4       __net_farm_05
 0004:002011C6       __net_haunted_00
 0004:002017E4       __net_haunted_01
 0004:002017E6       __net_haunted_02
 0004:0020180C       __net_haunted_03
 0004:00201832       __net_swamp_00
 0004:00201858       __net_swamp_01
 0004:0020187E       __net_swamp_02
 0004:002018A4       __net_swamp_03
 0004:002018CA       __net_jungle_00
 0004:002018F0       __net_jungle_01
 0004:00201916       __net_jungle_02
 0004:0020193C       __net_jungle_03
 0004:00201962       __net_desert_00
 0004:00201988       __net_desert_01
 0004:002019AE       __net_desert_02
 0004:002019D4       __net_desert_03
 0004:002019FC       aAssertionFa_35
 0004:00201A30       aWaringFileSLin
 0004:00201A64       blanks.12
 0004:00201A74       zeroes.13
 0004:00201A8C       a0123456789abcd
 0004:00201AA0       aNull
 0004:00201AA8       a0123456789ab_0
 0004:00201ABC       aBugInVfprintfB
 0004:00201AD8       a0_0
 0004:00201ADC       a_
 0004:00201AE0       aInfinity
 0004:00201AEC       aNan
 0004:00201AF0       a0_1
 0004:00201AF4       lconv
 0004:00201B30       p05.27
 0004:00201B3C       __mprec_tens
 0004:00201C04       __mprec_bigtens
 0004:00201C2C       __mprec_tinytens
 0004:00201C58       a_sbrkHeapAndSt
 0005:00000000       english_table
 0005:0000007C       etextmess0
 0005:00000083       etextmess1
 0005:0000008B       etextmess2
 0005:00000096       etextmess3
 0005:0000009E       etextmess4
 0005:000000A9       etextmess5
 0005:000000B1       etextmess6
 0005:000000C2       etextmess7
 0005:000000D2       etextmess8
 0005:000000DD       etextmess9
 0005:000000DF       etextmess10
 0005:000000E1       etextmess11
 0005:000000E3       etextmess12
 0005:000000E5       etextmess13
 0005:000000F1       etextmess14
 0005:00000100       etextmess15
 0005:0000010C       etextmess16
 0005:0000010E       etextmess17
 0005:00000110       etextmess18
 0005:00000112       etextmess19
 0005:0000011F       etextmess20
 0005:0000012B       etextmess21
 0005:00000138       etextmess22
 0005:00000144       etextmess23
 0005:00000153       etextmess24
 0005:00000164       etextmess25
 0005:00000173       etextmess26
 0005:0000017A       etextmess27
 0005:00000180       etextmess28
 0005:0000018C       etextmess29
 0005:0000019E       etextmess30
 0005:000001B4       sin_tab
 0005:000002B4       cos_tab
 0005:000006B4       Nintendo_Logo_plt
 0005:000008B4       Nintendo_Logo_num_chars
 0005:000008B8       Nintendo_Logo_chars
 0005:00001A98       Nintendo_Logo_map
 0005:00002298       Rare_Logo_plt
 0005:00002498       Rare_Logo_num_chars
 0005:0000249C       Rare_Logo_chars
 0005:00003DDC       Rare_Logo_map
 0005:000045DC       diddytitle0_num_chars
 0005:000045E0       diddytitle0_chars
 0005:00007FE0       diddytitle0_map
 0005:00008FE0       diddytitle1_num_chars
 0005:00008FE4       diddytitle1_chars
 0005:0000CA24       diddytitle1_map
 0005:0000DA24       diddytitle_plt
 0005:0000DAA4       diddytitle2_num_chars
 0005:0000DAA8       diddytitle2_chars
 0005:00011668       diddytitle2_map
 0005:00012668       CharSelect_image
 0005:00025268       CharSelect_plt
 0005:00025468       CharSelect_num_chars
 0005:0002546C       CharSelect_chars
 0005:000299EC       CharSelect_map
 0005:0002A1EC       KroolBG_plt
 0005:0002A3EC       KroolBG_num_chars
 0005:0002A3F0       KroolBG_chars
 0005:0002EB30       KroolBG_map
 0005:0002F330       tournament_background_plt
 0005:0002F530       tournament_background_num_chars
 0005:0002F534       tournament_background_chars
 0005:00032FF4       tournament_background_map
 0005:000334F4       bigfont_data
 0005:00034E74       bigfont_plt
 0005:00034E94       jap_bigfont_data
 0005:00036814       jap_bigfont_plt
 0005:00036834       smallfont_plt
 0005:00036854       smallfont_data
 0005:00037854       arrows_plt
 0005:00037874       arrows_frames
 0005:000378B8       arrows_info_0
 0005:000378C4       arrows_info_1
 0005:000378D0       arrows_info_2
 0005:000378DC       arrows_info_3
 0005:000378E8       arrows_char_0
 0005:00037928       arrows_char_1
 0005:00037968       arrows_char_2
 0005:000379A8       arrows_char_3
 0005:000379E8       backok_plt
 0005:00037A08       backok_frames
 0005:00037A4C       backok_info_0
 0005:00037A58       backok_info_1
 0005:00037A64       backok_info_2
 0005:00037A70       backok_info_3
 0005:00037A7C       backok_char_0
 0005:00037AFC       backok_char_1
 0005:00037B7C       backok_char_2
 0005:00037BFC       backok_char_3
 0005:00037C7C       glow_plt
 0005:00037C9C       glow_frames
 0005:00037CF0       glow_info_0
 0005:00037CFC       glow_info_1
 0005:00037D08       glow_info_2
 0005:00037D14       glow_info_3
 0005:00037D20       glow_info_4
 0005:00037D2C       glow_char_0
 0005:00037D4C       glow_char_1
 0005:00037D6C       glow_char_2
 0005:00037D8C       glow_char_3
 0005:00037DAC       glow_char_4
 0005:00037DCC       touricon_frames
 0005:00037E90       touricon_info_0
 0005:00037EA8       touricon_info_1
 0005:00037EC0       touricon_info_2
 0005:00037ED8       touricon_info_3
 0005:00037EF0       touricon_info_4
 0005:00037F08       touricon_info_5
 0005:00037F20       touricon_info_6
 0005:00037F38       touricon_info_7
 0005:00037F50       touricon_info_8
 0005:00037F68       touricon_info_9
 0005:00037F80       touricon_info_10
 0005:00037F98       touricon_info_11
 0005:00037FB0       touricon_char_0
 0005:00039FB0       touricon_char_1
 0005:0003BFB0       touricon_char_2
 0005:0003DFB0       touricon_char_3
 0005:0003FFB0       touricon_char_4
 0005:00041FB0       touricon_char_5
 0005:00043FB0       touricon_char_6
 0005:00045FB0       touricon_char_7
 0005:00047FB0       touricon_char_8
 0005:00049FB0       touricon_char_9
 0005:0004BFB0       touricon_char_10
 0005:0004DFB0       touricon_char_11
 0005:0004FFB0       touricon_plt
 0005:000501B0       bookicon_frames
 0005:00050274       bookicon_info_0
 0005:0005028C       bookicon_info_1
 0005:000502A4       bookicon_info_2
 0005:000502BC       bookicon_info_3
 0005:000502D4       bookicon_info_4
 0005:000502EC       bookicon_info_5
 0005:00050304       bookicon_info_6
 0005:0005031C       bookicon_info_7
 0005:00050334       bookicon_info_8
 0005:0005034C       bookicon_info_9
 0005:00050364       bookicon_info_10
 0005:0005037C       bookicon_info_11
 0005:00050394       bookicon_char_0
 0005:00052394       bookicon_char_1
 0005:00054394       bookicon_char_2
 0005:00056394       bookicon_char_3
 0005:00058394       bookicon_char_4
 0005:0005A394       bookicon_char_5
 0005:0005C394       bookicon_char_6
 0005:0005E394       bookicon_char_7
 0005:00060394       bookicon_char_8
 0005:00062394       bookicon_char_9
 0005:00064394       bookicon_char_10
 0005:00066394       bookicon_char_11
 0005:00068394       bookicon_plt
 0005:00068594       watchicon_frames
 0005:00068658       watchicon_info_0
 0005:00068664       watchicon_info_1
 0005:00068670       watchicon_info_2
 0005:0006867C       watchicon_info_3
 0005:00068688       watchicon_info_4
 0005:00068694       watchicon_info_5
 0005:000686A0       watchicon_info_6
 0005:000686AC       watchicon_info_7
 0005:000686B8       watchicon_info_8
 0005:000686C4       watchicon_info_9
 0005:000686D0       watchicon_info_10
 0005:000686DC       watchicon_info_11
 0005:000686E8       watchicon_char_0
 0005:000696E8       watchicon_char_1
 0005:0006A6E8       watchicon_char_2
 0005:0006B6E8       watchicon_char_3
 0005:0006C6E8       watchicon_char_4
 0005:0006D6E8       watchicon_char_5
 0005:0006E6E8       watchicon_char_6
 0005:0006F6E8       watchicon_char_7
 0005:000706E8       watchicon_char_8
 0005:000716E8       watchicon_char_9
 0005:000726E8       watchicon_char_10
 0005:000736E8       watchicon_char_11
 0005:000746E8       watchicon_plt
 0005:000748E8       multiicon_frames
 0005:000749AC       multiicon_info_0
 0005:000749C4       multiicon_info_1
 0005:000749DC       multiicon_info_2
 0005:000749F4       multiicon_info_3
 0005:00074A0C       multiicon_info_4
 0005:00074A24       multiicon_info_5
 0005:00074A3C       multiicon_info_6
 0005:00074A54       multiicon_info_7
 0005:00074A6C       multiicon_info_8
 0005:00074A84       multiicon_info_9
 0005:00074A9C       multiicon_info_10
 0005:00074AB4       multiicon_info_11
 0005:00074ACC       multiicon_char_0
 0005:00076ACC       multiicon_char_1
 0005:00078ACC       multiicon_char_2
 0005:0007AACC       multiicon_char_3
 0005:0007CACC       multiicon_char_4
 0005:0007EACC       multiicon_char_5
 0005:00080ACC       multiicon_char_6
 0005:00082ACC       multiicon_char_7
 0005:00084ACC       multiicon_char_8
 0005:00086ACC       multiicon_char_9
 0005:00088ACC       multiicon_char_10
 0005:0008AACC       multiicon_char_11
 0005:0008CACC       multiicon_plt
 0005:0008CCCC       dogicon_frames
 0005:0008CD90       dogicon_info_0
 0005:0008CDA8       dogicon_info_1
 0005:0008CDC0       dogicon_info_2
 0005:0008CDD8       dogicon_info_3
 0005:0008CDF0       dogicon_info_4
 0005:0008CE08       dogicon_info_5
 0005:0008CE20       dogicon_info_6
 0005:0008CE38       dogicon_info_7
 0005:0008CE50       dogicon_info_8
 0005:0008CE68       dogicon_info_9
 0005:0008CE80       dogicon_info_10
 0005:0008CE98       dogicon_info_11
 0005:0008CEB0       dogicon_char_0
 0005:0008EEB0       dogicon_char_1
 0005:00090EB0       dogicon_char_2
 0005:00092EB0       dogicon_char_3
 0005:00094EB0       dogicon_char_4
 0005:00096EB0       dogicon_char_5
 0005:00098EB0       dogicon_char_6
 0005:0009AEB0       dogicon_char_7
 0005:0009CEB0       dogicon_char_8
 0005:0009EEB0       dogicon_char_9
 0005:000A0EB0       dogicon_char_10
 0005:000A2EB0       dogicon_char_11
 0005:000A4EB0       dogicon_plt
 0005:000A50B0       optionicon_frames
 0005:000A5174       optionicon_info_0
 0005:000A518C       optionicon_info_1
 0005:000A51A4       optionicon_info_2
 0005:000A51BC       optionicon_info_3
 0005:000A51D4       optionicon_info_4
 0005:000A51EC       optionicon_info_5
 0005:000A5204       optionicon_info_6
 0005:000A521C       optionicon_info_7
 0005:000A5234       optionicon_info_8
 0005:000A524C       optionicon_info_9
 0005:000A5264       optionicon_info_10
 0005:000A527C       optionicon_info_11
 0005:000A5294       optionicon_char_0
 0005:000A7294       optionicon_char_1
 0005:000A9294       optionicon_char_2
 0005:000AB294       optionicon_char_3
 0005:000AD294       optionicon_char_4
 0005:000AF294       optionicon_char_5
 0005:000B1294       optionicon_char_6
 0005:000B3294       optionicon_char_7
 0005:000B5294       optionicon_char_8
 0005:000B7294       optionicon_char_9
 0005:000B9294       optionicon_char_10
 0005:000BB294       optionicon_char_11
 0005:000BD294       optionicon_plt
 0005:000BD494       bamboobarrel_frames
 0005:000BD558       bamboobarrel_info_0
 0005:000BD564       bamboobarrel_info_1
 0005:000BD570       bamboobarrel_info_2
 0005:000BD57C       bamboobarrel_info_3
 0005:000BD588       bamboobarrel_info_4
 0005:000BD594       bamboobarrel_info_5
 0005:000BD5A0       bamboobarrel_info_6
 0005:000BD5AC       bamboobarrel_info_7
 0005:000BD5B8       bamboobarrel_info_8
 0005:000BD5C4       bamboobarrel_info_9
 0005:000BD5D0       bamboobarrel_info_10
 0005:000BD5DC       bamboobarrel_info_11
 0005:000BD5E8       bamboobarrel_char_0
 0005:000BDDE8       bamboobarrel_char_1
 0005:000BE5E8       bamboobarrel_char_2
 0005:000BEDE8       bamboobarrel_char_3
 0005:000BF5E8       bamboobarrel_char_4
 0005:000BFDE8       bamboobarrel_char_5
 0005:000C05E8       bamboobarrel_char_6
 0005:000C0DE8       bamboobarrel_char_7
 0005:000C15E8       bamboobarrel_char_8
 0005:000C1DE8       bamboobarrel_char_9
 0005:000C25E8       bamboobarrel_char_10
 0005:000C2DE8       bamboobarrel_char_11
 0005:000C35E8       bamboobarrel_plt
 0005:000C3628       blast1_frames
 0005:000C364C       blast1_info_0
 0005:000C3658       blast1_char_0
 0005:000C3E58       blast1_plt
 0005:000C3E78       cloudburst_frames
 0005:000C3ECC       cloudburst_info_0
 0005:000C3ED8       cloudburst_info_1
 0005:000C3EE4       cloudburst_info_2
 0005:000C3EF0       cloudburst_info_3
 0005:000C3EFC       cloudburst_info_4
 0005:000C3F08       cloudburst_char_0
 0005:000C4708       cloudburst_char_1
 0005:000C4F08       cloudburst_char_2
 0005:000C5708       cloudburst_char_3
 0005:000C5F08       cloudburst_char_4
 0005:000C6708       cloudburst_plt
 0005:000C6728       e3_frames
 0005:000C673C       e3_info_0
 0005:000C6754       e3_char_0
 0005:000C68D4       e3_plt
 0005:000C68F4       rare_frames
 0005:000C6908       rare_info_0
 0005:000C6920       rare_char_0
 0005:000C6AA0       rare_plt
 0005:000C6AC0       bowser_data
 0005:000C70C0       dixie_data
 0005:000C76C0       donky_data
 0005:000C7CC0       funky_data
 0005:000C82C0       kranky_data
 0005:000C88C0       mario_data
 0005:000C8EC0       peach_data
 0005:000C94C0       toad_data
 0005:000C9CC0       wario_data
 0005:000CA2C0       yoshi_data
 0005:000CA8C0       Heads_plt
 0005:000CAAC0       diddy_data
 0005:000CB0C0       krool_data
 0005:000CBCC0       qmark_data
 0005:000CC4C0       qmark_plt
 0005:000CC6C0       fight_frames
 0005:000CC724       fight_info_0
 0005:000CC754       fight_info_1
 0005:000CC784       fight_info_2
 0005:000CC7B4       fight_info_3
 0005:000CC7E4       fight_info_4
 0005:000CC814       fight_info_5
 0005:000CC844       fight_char_0
 0005:000CD144       fight_char_1
 0005:000CDA44       fight_char_2
 0005:000CE344       fight_char_3
 0005:000CEC44       fight_char_4
 0005:000CF544       fight_char_5
 0005:000CFE44       fight_plt
 0005:000D0044       battle_frames
 0005:000D00A8       battle_info_0
 0005:000D00D8       battle_info_1
 0005:000D0108       battle_info_2
 0005:000D0138       battle_info_3
 0005:000D0168       battle_info_4
 0005:000D0198       battle_info_5
 0005:000D01C8       battle_char_0
 0005:000D0AC8       battle_char_1
 0005:000D13C8       battle_char_2
 0005:000D1CC8       battle_char_3
 0005:000D25C8       battle_char_4
 0005:000D2EC8       battle_char_5
 0005:000D37C8       battle_plt
 0005:000D39C8       the_gang_plt
 0005:000D39CE       aI
 0005:000D3BC8       the_gang_num_chars
 0005:000D3BCC       the_gang_chars
 0005:000D5EEC       the_gang_map
 0005:000D63EC       clr_cranky_frames
 0005:000D6400       clr_cranky_info_0
 0005:000D646C       clr_cranky_char_0
 0005:000D706C       clr_cranky_plt
 0005:000D726C       clr_diddy_frames
 0005:000D7280       clr_diddy_info_0
 0005:000D72E0       clr_diddy_char_0
 0005:000D7AA0       clr_diddy_plt
 0005:000D7CA0       clr_dixie_frames
 0005:000D7CB4       clr_dixie_info_0
 0005:000D7CD8       clr_dixie_char_0
 0005:000D8618       clr_dixie_plt
 0005:000D8818       clr_kong_frames
 0005:000D882C       clr_kong_info_0
 0005:000D8850       clr_kong_char_0
 0005:000D9950       clr_kong_plt
 0005:000D9B50       clr_krash_frames
 0005:000D9B64       clr_krash_info_0
 0005:000D9BE8       clr_krash_char_0
 0005:000DA8E8       clr_krash_plt
 0005:000DAAE8       clr_krool_frames
 0005:000DAAFC       clr_krool_info_0
 0005:000DAB5C       clr_krool_char_0
 0005:000DBC9C       clr_krool_plt
 0005:000DBE9C       clr_red_frames
 0005:000DBEB0       clr_red_info_0
 0005:000DBF10       clr_red_char_0
 0005:000DCD10       clr_red_plt
 0005:000DCF10       arrow_frames
 0005:000DCF24       arrow_info_0
 0005:000DCF30       arrow_char_0
 0005:000DD130       arrow_plt
 0005:000DD150       bowsersel_frames
 0005:000DD354       bowsersel_info_0
 0005:000DD384       bowsersel_info_1
 0005:000DD3E4       bowsersel_info_2
 0005:000DD420       bowsersel_info_3
 0005:000DD468       bowsersel_info_4
 0005:000DD4D4       bowsersel_info_5
 0005:000DD504       bowsersel_info_6
 0005:000DD534       bowsersel_info_7
 0005:000DD558       bowsersel_info_8
 0005:000DD57C       bowsersel_info_9
 0005:000DD5AC       bowsersel_info_10
 0005:000DD600       bowsersel_info_11
 0005:000DD624       bowsersel_info_12
 0005:000DD660       bowsersel_info_13
 0005:000DD684       bowsersel_info_14
 0005:000DD6D8       bowsersel_info_15
 0005:000DD72C       bowsersel_info_16
 0005:000DD768       bowsersel_info_17
 0005:000DD7B0       bowsersel_info_18
 0005:000DD81C       bowsersel_info_19
 0005:000DD87C       bowsersel_info_20
 0005:000DD8D0       bowsersel_info_21
 0005:000DD924       bowsersel_info_22
 0005:000DD93C       bowsersel_info_23
 0005:000DD990       bowsersel_info_24
 0005:000DD9F0       bowsersel_info_25
 0005:000DDA50       bowsersel_info_26
 0005:000DDABC       bowsersel_info_27
 0005:000DDB04       bowsersel_info_28
 0005:000DDB40       bowsersel_info_29
 0005:000DDB7C       bowsersel_info_30
 0005:000DDBAC       bowsersel_info_31
 0005:000DDBF4       bowsersel_char_0
 0005:000DE174       bowsersel_char_1
 0005:000DE6D4       bowsersel_char_2
 0005:000DEBD4       bowsersel_char_3
 0005:000DF0F4       bowsersel_char_4
 0005:000DF514       bowsersel_char_5
 0005:000DF9F4       bowsersel_char_6
 0005:000DFED4       bowsersel_char_7
 0005:000E0374       bowsersel_char_8
 0005:000E0834       bowsersel_char_9
 0005:000E0848       aSs
 0005:000E084C       aS
 0005:000E0CF4       bowsersel_char_10
 0005:000E1134       bowsersel_char_11
 0005:000E1674       bowsersel_char_12
 0005:000E1B94       bowsersel_char_13
 0005:000E20D4       bowsersel_char_14
 0005:000E2614       bowsersel_char_15
 0005:000E2B74       bowsersel_char_16
 0005:000E3094       bowsersel_char_17
 0005:000E35B4       bowsersel_char_18
 0005:000E3A54       bowsersel_char_19
 0005:000E3E74       bowsersel_char_20
 0005:000E4294       bowsersel_char_21
 0005:000E4674       bowsersel_char_22
 0005:000E4AF4       bowsersel_char_23
 0005:000E4E94       bowsersel_char_24
 0005:000E5214       bowsersel_char_25
 0005:000E55F4       bowsersel_char_26
 0005:000E5A14       bowsersel_char_27
 0005:000E5DF4       bowsersel_char_28
 0005:000E62F4       bowsersel_char_29
 0005:000E6834       bowsersel_char_30
 0005:000E6D54       bowsersel_char_31
 0005:000E7274       bowsersel_plt
 0005:000E7294       crankysel_frames
 0005:000E7498       crankysel_info_0
 0005:000E74EC       crankysel_info_1
 0005:000E7540       crankysel_info_2
 0005:000E757C       crankysel_info_3
 0005:000E75C4       crankysel_info_4
 0005:000E760C       crankysel_info_5
 0005:000E7654       crankysel_info_6
 0005:000E7690       crankysel_info_7
 0005:000E76CC       crankysel_info_8
 0005:000E7708       crankysel_info_9
 0005:000E7744       crankysel_info_10
 0005:000E7798       crankysel_info_11
 0005:000E77EC       crankysel_info_12
 0005:000E7840       crankysel_info_13
 0005:000E7894       crankysel_info_14
 0005:000E78B8       crankysel_info_15
 0005:000E78F4       crankysel_info_16
 0005:000E793C       crankysel_info_17
 0005:000E7984       crankysel_info_18
 0005:000E79C0       crankysel_info_19
 0005:000E7A20       crankysel_info_20
 0005:000E7A5C       crankysel_info_21
 0005:000E7ABC       crankysel_info_22
 0005:000E7B04       crankysel_info_23
 0005:000E7B4C       crankysel_info_24
 0005:000E7B88       crankysel_info_25
 0005:000E7BD0       crankysel_info_26
 0005:000E7C18       crankysel_info_27
 0005:000E7C54       crankysel_info_28
 0005:000E7C90       crankysel_info_29
 0005:000E7CD8       crankysel_info_30
 0005:000E7D08       crankysel_info_31
 0005:000E7D5C       crankysel_char_0
 0005:000E7FDC       crankysel_char_1
 0005:000E825C       crankysel_char_2
 0005:000E84FC       crankysel_char_3
 0005:000E87FC       crankysel_char_4
 0005:000E8B1C       crankysel_char_5
 0005:000E8B25       aIi
 0005:000E8E5C       crankysel_char_6
 0005:000E91BC       crankysel_char_7
 0005:000E94DC       crankysel_char_8
 0005:000E983C       crankysel_char_9
 0005:000E9BBC       crankysel_char_10
 0005:000E9F7C       crankysel_char_11
 0005:000EA33C       crankysel_char_12
 0005:000EA71C       crankysel_char_13
 0005:000EAADC       crankysel_char_14
 0005:000EAF5C       crankysel_char_15
 0005:000EB35C       crankysel_char_16
 0005:000EB73C       crankysel_char_17
 0005:000EBB3C       crankysel_char_18
 0005:000EBEFC       crankysel_char_19
 0005:000EC2BC       crankysel_char_20
 0005:000EC63C       crankysel_char_21
 0005:000EC9BC       crankysel_char_22
 0005:000ECD1C       crankysel_char_23
 0005:000ED09C       crankysel_char_24
 0005:000ED3FC       crankysel_char_25
 0005:000ED79C       crankysel_char_26
 0005:000EDB1C       crankysel_char_27
 0005:000EDE7C       crankysel_char_28
 0005:000EE17C       crankysel_char_29
 0005:000EE49C       crankysel_char_30
 0005:000EE75C       crankysel_char_31
 0005:000EE9DC       crankysel_plt
 0005:000EE9FC       diddysel_frames
 0005:000EEC00       diddysel_info_0
 0005:000EEC54       diddysel_info_1
 0005:000EECA8       diddysel_info_2
 0005:000EECD8       diddysel_info_3
 0005:000EED20       diddysel_info_4
 0005:000EED5C       diddysel_info_5
 0005:000EED98       diddysel_info_6
 0005:000EEDD4       diddysel_info_7
 0005:000EEE10       diddysel_info_8
 0005:000EEE4C       diddysel_info_9
 0005:000EEE94       diddysel_info_10
 0005:000EEEDC       diddysel_info_11
 0005:000EEF24       diddysel_info_12
 0005:000EEF6C       diddysel_info_13
 0005:000EEFB4       diddysel_info_14
 0005:000EEFF0       diddysel_info_15
 0005:000EF02C       diddysel_info_16
 0005:000EF08C       diddysel_info_17
 0005:000EF0C8       diddysel_info_18
 0005:000EF104       diddysel_info_19
 0005:000EF14C       diddysel_info_20
 0005:000EF194       diddysel_info_21
 0005:000EF1DC       diddysel_info_22
 0005:000EF218       diddysel_info_23
 0005:000EF254       diddysel_info_24
 0005:000EF290       diddysel_info_25
 0005:000EF2CC       diddysel_info_26
 0005:000EF314       diddysel_info_27
 0005:000EF350       diddysel_info_28
 0005:000EF398       diddysel_info_29
 0005:000EF3E0       diddysel_info_30
 0005:000EF410       diddysel_info_31
 0005:000EF464       diddysel_char_0
 0005:000EF6E4       diddysel_char_1
 0005:000EF984       diddysel_char_2
 0005:000EFC64       diddysel_char_3
 0005:000EFF84       diddysel_char_4
 0005:000F02E4       diddysel_char_5
 0005:000F05E4       diddysel_char_6
 0005:000F0944       diddysel_char_7
 0005:000F0C44       diddysel_char_8
 0005:000F0F44       diddysel_char_9
 0005:000F1244       diddysel_char_10
 0005:000F1544       diddysel_char_11
 0005:000F1864       diddysel_char_12
 0005:000F1B84       diddysel_char_13
 0005:000F1EC4       diddysel_char_14
 0005:000F21E4       diddysel_char_15
 0005:000F2564       diddysel_char_16
 0005:000F2844       diddysel_char_17
 0005:000F2BC4       diddysel_char_18
 0005:000F2EE4       diddysel_char_19
 0005:000F3224       diddysel_char_20
 0005:000F3564       diddysel_char_21
 0005:000F38A4       diddysel_char_22
 0005:000F3BC4       diddysel_char_23
 0005:000F3EE4       diddysel_char_24
 0005:000F41E4       diddysel_char_25
 0005:000F44E4       diddysel_char_26
 0005:000F4824       diddysel_char_27
 0005:000F4B44       diddysel_char_28
 0005:000F4E84       diddysel_char_29
 0005:000F5184       diddysel_char_30
 0005:000F54C4       diddysel_char_31
 0005:000F5764       diddysel_plt
 0005:000F5784       dixieysel_frames
 0005:000F5988       dixieysel_info_0
 0005:000F59D0       dixieysel_info_1
 0005:000F5A0C       dixieysel_info_2
 0005:000F5A24       dixieysel_info_3
 0005:000F5A60       dixieysel_info_4
 0005:000F5AC0       dixieysel_info_5
 0005:000F5AFC       dixieysel_info_6
 0005:000F5B44       dixieysel_info_7
 0005:000F5B80       dixieysel_info_8
 0005:000F5BBC       dixieysel_info_9
 0005:000F5BF8       dixieysel_info_10
 0005:000F5C34       dixieysel_info_11
 0005:000F5C64       dixieysel_info_12
 0005:000F5C94       dixieysel_info_13
 0005:000F5CF4       dixieysel_info_14
 0005:000F5D48       dixieysel_info_15
 0005:000F5D90       dixieysel_info_16
 0005:000F5DF0       dixieysel_info_17
 0005:000F5E38       dixieysel_info_18
 0005:000F5E98       dixieysel_info_19
 0005:000F5EBC       dixieysel_info_20
 0005:000F5EE0       dixieysel_info_21
 0005:000F5F10       dixieysel_info_22
 0005:000F5F4C       dixieysel_info_23
 0005:000F5F88       dixieysel_info_24
 0005:000F5FD0       dixieysel_info_25
 0005:000F600C       dixieysel_info_26
 0005:000F606C       dixieysel_info_27
 0005:000F609C       dixieysel_info_28
 0005:000F60F0       dixieysel_info_29
 0005:000F6138       dixieysel_info_30
 0005:000F6180       dixieysel_info_31
 0005:000F61BC       dixieysel_char_0
 0005:000F61C1       aR
 0005:000F653C       dixieysel_char_1
 0005:000F68FC       dixieysel_char_2
 0005:000F6D3C       dixieysel_char_3
 0005:000F711C       dixieysel_char_4
 0005:000F751C       dixieysel_char_5
 0005:000F79DC       dixieysel_char_6
 0005:000F7EFC       dixieysel_char_7
 0005:000F841C       dixieysel_char_8
 0005:000F893C       dixieysel_char_9
 0005:000F8E1C       dixieysel_char_10
 0005:000F92BC       dixieysel_char_11
 0005:000F979C       dixieysel_char_12
 0005:000F9C1C       dixieysel_char_13
 0005:000FA01C       dixieysel_char_14
 0005:000FA3DC       dixieysel_char_15
 0005:000FA79C       dixieysel_char_16
 0005:000FAB7C       dixieysel_char_17
 0005:000FAF3C       dixieysel_char_18
 0005:000FB2FC       dixieysel_char_19
 0005:000FB79C       dixieysel_char_20
 0005:000FBC5C       dixieysel_char_21
 0005:000FC11C       dixieysel_char_22
 0005:000FC61C       dixieysel_char_23
 0005:000FCB3C       dixieysel_char_24
 0005:000FD05C       dixieysel_char_25
 0005:000FD51C       dixieysel_char_26
 0005:000FD93C       dixieysel_char_27
 0005:000FDCFC       dixieysel_char_28
 0005:000FE07C       dixieysel_char_29
 0005:000FE45C       dixieysel_char_30
 0005:000FE7DC       dixieysel_char_31
 0005:000FEB3C       dixieysel_plt
 0005:000FEB5C       funkysel_frames
 0005:000FED60       funkysel_info_0
 0005:000FED9C       funkysel_info_1
 0005:000FEDD8       funkysel_info_2
 0005:000FEE08       funkysel_info_3
 0005:000FEE50       funkysel_info_4
 0005:000FEE8C       funkysel_info_5
 0005:000FEEE0       funkysel_info_6
 0005:000FEF28       funkysel_info_7
 0005:000FEF7C       funkysel_info_8
 0005:000FEFD0       funkysel_info_9
 0005:000FF024       funkysel_info_10
 0005:000FF084       funkysel_info_11
 0005:000FF0D8       funkysel_info_12
 0005:000FF120       funkysel_info_13
 0005:000FF168       funkysel_info_14
 0005:000FF198       funkysel_info_15
 0005:000FF1E0       funkysel_info_16
 0005:000FF234       funkysel_info_17
 0005:000FF288       funkysel_info_18
 0005:000FF2E8       funkysel_info_19
 0005:000FF330       funkysel_info_20
 0005:000FF384       funkysel_info_21
 0005:000FF3F0       funkysel_info_22
 0005:000FF450       funkysel_info_23
 0005:000FF4A4       funkysel_info_24
 0005:000FF51C       funkysel_info_25
 0005:000FF570       funkysel_info_26
 0005:000FF5B8       funkysel_info_27
 0005:000FF5F4       funkysel_info_28
 0005:000FF63C       funkysel_info_29
 0005:000FF678       funkysel_info_30
 0005:000FF6A8       funkysel_info_31
 0005:000FF6E4       funkysel_char_0
 0005:000FFA24       funkysel_char_1
 0005:000FFDA4       funkysel_char_2
 0005:00100104       funkysel_char_3
 0005:001004C4       funkysel_char_4
 0005:001004CD       aI_0
 0005:001004CF       aZ_0
 0005:001004D1       aAix
 0005:00100864       funkysel_char_5
 0005:00100BE4       funkysel_char_6
 0005:00100FA4       funkysel_char_7
 0005:00101344       funkysel_char_8
 0005:001016E4       funkysel_char_9
 0005:00101AA4       funkysel_char_10
 0005:00101E84       funkysel_char_11
 0005:00102204       funkysel_char_12
 0005:00102564       funkysel_char_13
 0005:00102884       funkysel_char_14
 0005:00102B84       funkysel_char_15
 0005:00102EA4       funkysel_char_16
 0005:001031E4       funkysel_char_17
 0005:00103524       funkysel_char_18
 0005:001038E4       funkysel_char_19
 0005:00103C64       funkysel_char_20
 0005:00104024       funkysel_char_21
 0005:00104404       funkysel_char_22
 0005:00104824       funkysel_char_23
 0005:00104C44       funkysel_char_24
 0005:00105064       funkysel_char_25
 0005:00105484       funkysel_char_26
 0005:00105884       funkysel_char_27
 0005:00105C24       funkysel_char_28
 0005:00105FA4       funkysel_char_29
 0005:001062E4       funkysel_char_30
 0005:001065E4       funkysel_char_31
 0005:00106904       funkysel_plt
 0005:00106924       kongsel_frames
 0005:00106B28       kongsel_info_0
 0005:00106B64       kongsel_info_1
 0005:00106BA0       kongsel_info_2
 0005:00106BDC       kongsel_info_3
 0005:00106C18       kongsel_info_4
 0005:00106C84       kongsel_info_5
 0005:00106CC0       kongsel_info_6
 0005:00106CF0       kongsel_info_7
 0005:00106D2C       kongsel_info_8
 0005:00106D8C       kongsel_info_9
 0005:00106DD4       kongsel_info_10
 0005:00106E1C       kongsel_info_11
 0005:00106E64       kongsel_info_12
 0005:00106EA0       kongsel_info_13
 0005:00106EE8       kongsel_info_14
 0005:00106F24       kongsel_info_15
 0005:00106F6C       kongsel_info_16
 0005:00106FA8       kongsel_info_17
 0005:00106FFC       kongsel_info_18
 0005:00107044       kongsel_info_19
 0005:00107074       kongsel_info_20
 0005:001070B0       kongsel_info_21
 0005:001070F8       kongsel_info_22
 0005:00107128       kongsel_info_23
 0005:00107188       kongsel_info_24
 0005:001071DC       kongsel_info_25
 0005:00107224       kongsel_info_26
 0005:0010726C       kongsel_info_27
 0005:001072B4       kongsel_info_28
 0005:001072D8       kongsel_info_29
 0005:00107314       kongsel_info_30
 0005:0010735C       kongsel_info_31
 0005:00107398       kongsel_char_0
 0005:001078D8       kongsel_char_1
 0005:00107E18       kongsel_char_2
 0005:00108358       kongsel_char_3
 0005:001088B8       kongsel_char_4
 0005:00108D58       kongsel_char_5
 0005:00109278       kongsel_char_6
 0005:001097B8       kongsel_char_7
 0005:00109CD8       kongsel_char_8
 0005:0010A178       kongsel_char_9
 0005:0010A6F8       kongsel_char_10
 0005:0010AC38       kongsel_char_11
 0005:0010B1D8       kongsel_char_12
 0005:0010B758       kongsel_char_13
 0005:0010BC98       kongsel_char_14
 0005:0010C1F8       kongsel_char_15
 0005:0010C778       kongsel_char_16
 0005:0010CCB8       kongsel_char_17
 0005:0010D258       kongsel_char_18
 0005:0010D7B8       kongsel_char_19
 0005:0010DD18       kongsel_char_20
 0005:0010E298       kongsel_char_21
 0005:0010E718       kongsel_char_22
 0005:0010EC58       kongsel_char_23
 0005:0010F0D8       kongsel_char_24
 0005:0010F578       kongsel_char_25
 0005:0010F9F8       kongsel_char_26
 0005:0010FF58       kongsel_char_27
 0005:001104B8       kongsel_char_28
 0005:001109F8       kongsel_char_29
 0005:00110F58       kongsel_char_30
 0005:001114D8       kongsel_char_31
 0005:00111A38       kongsel_plt
 0005:00111A58       kroolsel_frames
 0005:00111C5C       kroolsel_info_0
 0005:00111C8C       kroolsel_info_1
 0005:00111CEC       kroolsel_info_2
 0005:00111D58       kroolsel_info_3
 0005:00111D94       kroolsel_info_4
 0005:00111DD0       kroolsel_info_5
 0005:00111E18       kroolsel_info_6
 0005:00111E60       kroolsel_info_7
 0005:00111EB4       kroolsel_info_8
 0005:00111F14       kroolsel_info_9
 0005:00111F68       kroolsel_info_10
 0005:00111FB0       kroolsel_info_11
 0005:00111FE0       kroolsel_info_12
 0005:00112064       kroolsel_info_13
 0005:001120D0       kroolsel_info_14
 0005:00112154       kroolsel_info_15
 0005:001121CC       kroolsel_info_16
 0005:00112208       kroolsel_info_17
 0005:0011225C       kroolsel_info_18
 0005:001122BC       kroolsel_info_19
 0005:00112304       kroolsel_info_20
 0005:00112358       kroolsel_info_21
 0005:001123AC       kroolsel_info_22
 0005:00112400       kroolsel_info_23
 0005:00112448       kroolsel_info_24
 0005:001124A8       kroolsel_info_25
 0005:001124FC       kroolsel_info_26
 0005:00112538       kroolsel_info_27
 0005:00112568       kroolsel_info_28
 0005:001125B0       kroolsel_info_29
 0005:001125EC       kroolsel_info_30
 0005:00112640       kroolsel_info_31
 0005:00112694       kroolsel_char_0
 0005:00112B34       kroolsel_char_1
 0005:00112F14       kroolsel_char_2
 0005:00113334       kroolsel_char_3
 0005:00113834       kroolsel_char_4
 0005:00113D14       kroolsel_char_5
 0005:00114234       kroolsel_char_6
 0005:00114754       kroolsel_char_7
 0005:00114CD4       kroolsel_char_8
 0005:00115214       kroolsel_char_9
 0005:00115754       kroolsel_char_10
 0005:00115CF4       kroolsel_char_11
 0005:00116234       kroolsel_char_12
 0005:001166F4       kroolsel_char_13
 0005:00116B74       kroolsel_char_14
 0005:00117034       kroolsel_char_15
 0005:001174B4       kroolsel_char_16
 0005:001179F4       kroolsel_char_17
 0005:00117F54       kroolsel_char_18
 0005:00118414       kroolsel_char_19
 0005:00118994       kroolsel_char_20
 0005:00118EF4       kroolsel_char_21
 0005:00119434       kroolsel_char_22
 0005:001199B4       kroolsel_char_23
 0005:00119F14       kroolsel_char_24
 0005:0011A474       kroolsel_char_25
 0005:0011A9B4       kroolsel_char_26
 0005:0011AEB4       kroolsel_char_27
 0005:0011B3B4       kroolsel_char_28
 0005:0011B8B4       kroolsel_char_29
 0005:0011BD94       kroolsel_char_30
 0005:0011C174       kroolsel_char_31
 0005:0011C554       kroolsel_plt
 0005:0011C574       mariosel_frames
 0005:0011C778       mariosel_info_0
 0005:0011C7CC       mariosel_info_1
 0005:0011C7FC       mariosel_info_2
 0005:0011C82C       mariosel_info_3
 0005:0011C85C       mariosel_info_4
 0005:0011C88C       mariosel_info_5
 0005:0011C8BC       mariosel_info_6
 0005:0011C904       mariosel_info_7
 0005:0011C940       mariosel_info_8
 0005:0011C97C       mariosel_info_9
 0005:0011C9AC       mariosel_info_10
 0005:0011C9F4       mariosel_info_11
 0005:0011CA24       mariosel_info_12
 0005:0011CA6C       mariosel_info_13
 0005:0011CA9C       mariosel_info_14
 0005:0011CAE4       mariosel_info_15
 0005:0011CB2C       mariosel_info_16
 0005:0011CB5C       mariosel_info_17
 0005:0011CBBC       mariosel_info_18
 0005:0011CC10       mariosel_info_19
 0005:0011CC4C       mariosel_info_20
 0005:0011CC88       mariosel_info_21
 0005:0011CCB8       mariosel_info_22
 0005:0011CCF4       mariosel_info_23
 0005:0011CD18       mariosel_info_24
 0005:0011CD48       mariosel_info_25
 0005:0011CD84       mariosel_info_26
 0005:0011CDC0       mariosel_info_27
 0005:0011CDE4       mariosel_info_28
 0005:0011CE08       mariosel_info_29
 0005:0011CE38       mariosel_info_30
 0005:0011CE68       mariosel_info_31
 0005:0011CE98       mariosel_char_0
 0005:0011D138       mariosel_char_1
 0005:0011D478       mariosel_char_2
 0005:0011D7B8       mariosel_char_3
 0005:0011DA98       mariosel_char_4
 0005:0011DD58       mariosel_char_5
 0005:0011E018       mariosel_char_6
 0005:0011E338       mariosel_char_7
 0005:0011E618       mariosel_char_8
 0005:0011E8D8       mariosel_char_9
 0005:0011EB98       mariosel_char_10
 0005:0011EE58       mariosel_char_11
 0005:0011F138       mariosel_char_12
 0005:0011F458       mariosel_char_13
 0005:0011F798       mariosel_char_14
 0005:0011FAB8       mariosel_char_15
 0005:0011FDD8       mariosel_char_16
 0005:00120118       mariosel_char_17
 0005:00120418       mariosel_char_18
 0005:001206F8       mariosel_char_19
 0005:00120A38       mariosel_char_20
 0005:00120CF8       mariosel_char_21
 0005:00120FD8       mariosel_char_22
 0005:00121278       mariosel_char_23
 0005:00121518       mariosel_char_24
 0005:001217B8       mariosel_char_25
 0005:00121AB8       mariosel_char_26
 0005:00121D98       mariosel_char_27
 0005:00122018       mariosel_char_28
 0005:001222D8       mariosel_char_29
 0005:001225B8       mariosel_char_30
 0005:001228D8       mariosel_char_31
 0005:00122C18       mariosel_plt
 0005:00122C38       peachsel_frames
 0005:00122E3C       peachsel_info_0
 0005:00122E6C       peachsel_info_1
 0005:00122EB4       peachsel_info_2
 0005:00122F14       peachsel_info_3
 0005:00122F68       peachsel_info_4
 0005:00122FB0       peachsel_info_5
 0005:00122FF8       peachsel_info_6
 0005:00123034       peachsel_info_7
 0005:00123088       peachsel_info_8
 0005:001230C4       peachsel_info_9
 0005:00123130       peachsel_info_10
 0005:00123178       peachsel_info_11
 0005:001231D8       peachsel_info_12
 0005:0012322C       peachsel_info_13
 0005:00123274       peachsel_info_14
 0005:001232A4       peachsel_info_15
 0005:001232D4       peachsel_info_16
 0005:00123304       peachsel_info_17
 0005:0012334C       peachsel_info_18
 0005:001233B8       peachsel_info_19
 0005:00123418       peachsel_info_20
 0005:00123460       peachsel_info_21
 0005:001234B4       peachsel_info_22
 0005:001234FC       peachsel_info_23
 0005:00123538       peachsel_info_24
 0005:0012358C       peachsel_info_25
 0005:001235D4       peachsel_info_26
 0005:0012361C       peachsel_info_27
 0005:00123670       peachsel_info_28
 0005:001236C4       peachsel_info_29
 0005:0012370C       peachsel_info_30
 0005:0012373C       peachsel_info_31
 0005:0012376C       peachsel_char_0
 0005:00123AAC       peachsel_char_1
 0005:00123E2C       peachsel_char_2
 0005:0012420C       peachsel_char_3
 0005:001245CC       peachsel_char_4
 0005:001249AC       peachsel_char_5
 0005:00124D8C       peachsel_char_6
 0005:001251AC       peachsel_char_7
 0005:001255A8       peachsel_char_8
 0005:001259A8       peachsel_char_9
 0005:00125DA8       peachsel_char_10
 0005:001261C8       peachsel_char_11
 0005:00126608       peachsel_char_12
 0005:00126A08       peachsel_char_13
 0005:00126DA8       peachsel_char_14
 0005:00127128       peachsel_char_15
 0005:001274A8       peachsel_char_16
 0005:00127828       peachsel_char_17
 0005:00127C08       peachsel_char_18
 0005:00127FE8       peachsel_char_19
 0005:00128428       peachsel_char_20
 0005:00128848       peachsel_char_21
 0005:00128C48       peachsel_char_22
 0005:00129068       peachsel_char_23
 0005:00129468       peachsel_char_24
 0005:0012946D       aMk
 0005:00129888       peachsel_char_25
 0005:00129CA8       peachsel_char_26
 0005:0012A068       peachsel_char_27
 0005:0012A428       peachsel_char_28
 0005:0012A808       peachsel_char_29
 0005:0012AB88       peachsel_char_30
 0005:0012AEC8       peachsel_char_31
 0005:0012B248       peachsel_plt
 0005:0012B268       toadsel_frames
 0005:0012B46C       toadsel_info_0
 0005:0012B484       toadsel_info_1
 0005:0012B49C       toadsel_info_2
 0005:0012B4B4       toadsel_info_3
 0005:0012B4CC       toadsel_info_4
 0005:0012B4F0       toadsel_info_5
 0005:0012B514       toadsel_info_6
 0005:0012B538       toadsel_info_7
 0005:0012B55C       toadsel_info_8
 0005:0012B580       toadsel_info_9
 0005:0012B5A4       toadsel_info_10
 0005:0012B5C8       toadsel_info_11
 0005:0012B5EC       toadsel_info_12
 0005:0012B610       toadsel_info_13
 0005:0012B628       toadsel_info_14
 0005:0012B640       toadsel_info_15
 0005:0012B658       toadsel_info_16
 0005:0012B670       toadsel_info_17
 0005:0012B688       toadsel_info_18
 0005:0012B6AC       toadsel_info_19
 0005:0012B6D0       toadsel_info_20
 0005:0012B6E8       toadsel_info_21
 0005:0012B700       toadsel_info_22
 0005:0012B724       toadsel_info_23
 0005:0012B748       toadsel_info_24
 0005:0012B76C       toadsel_info_25
 0005:0012B790       toadsel_info_26
 0005:0012B7B4       toadsel_info_27
 0005:0012B7D8       toadsel_info_28
 0005:0012B7FC       toadsel_info_29
 0005:0012B820       toadsel_info_30
 0005:0012B838       toadsel_info_31
 0005:0012B850       toadsel_char_0
 0005:0012BA90       toadsel_char_1
 0005:0012BCD0       toadsel_char_2
 0005:0012BF10       toadsel_char_3
 0005:0012C150       toadsel_char_4
 0005:0012C3B0       toadsel_char_5
 0005:0012C610       toadsel_char_6
 0005:0012C870       toadsel_char_7
 0005:0012CAD0       toadsel_char_8
 0005:0012CD30       toadsel_char_9
 0005:0012CF90       toadsel_char_10
 0005:0012D1F0       toadsel_char_11
 0005:0012D450       toadsel_char_12
 0005:0012D6B0       toadsel_char_13
 0005:0012D8F0       toadsel_char_14
 0005:0012DB30       toadsel_char_15
 0005:0012DD70       toadsel_char_16
 0005:0012DFB0       toadsel_char_17
 0005:0012E1F0       toadsel_char_18
 0005:0012E450       toadsel_char_19
 0005:0012E6B0       toadsel_char_20
 0005:0012E8F0       toadsel_char_21
 0005:0012EB30       toadsel_char_22
 0005:0012ED90       toadsel_char_23
 0005:0012EFF0       toadsel_char_24
 0005:0012F250       toadsel_char_25
 0005:0012F4B0       toadsel_char_26
 0005:0012F710       toadsel_char_27
 0005:0012F970       toadsel_char_28
 0005:0012FBD0       toadsel_char_29
 0005:0012FE30       toadsel_char_30
 0005:00130070       toadsel_char_31
 0005:001302B0       toadsel_plt
 0005:001302D0       wariosel_frames
 0005:001304D4       wariosel_info_0
 0005:00130528       wariosel_info_1
 0005:00130588       wariosel_info_2
 0005:001305E8       wariosel_info_3
 0005:00130648       wariosel_info_4
 0005:001306A8       wariosel_info_5
 0005:001306FC       wariosel_info_6
 0005:00130750       wariosel_info_7
 0005:00130780       wariosel_info_8
 0005:001307C8       wariosel_info_9
 0005:00130810       wariosel_info_10
 0005:00130864       wariosel_info_11
 0005:001308AC       wariosel_info_12
 0005:001308F4       wariosel_info_13
 0005:00130954       wariosel_info_14
 0005:001309CC       wariosel_info_15
 0005:00130A38       wariosel_info_16
 0005:00130A98       wariosel_info_17
 0005:00130AEC       wariosel_info_18
 0005:00130B34       wariosel_info_19
 0005:00130B94       wariosel_info_20
 0005:00130BE8       wariosel_info_21
 0005:00130C48       wariosel_info_22
 0005:00130C90       wariosel_info_23
 0005:00130CC0       wariosel_info_24
 0005:00130D14       wariosel_info_25
 0005:00130D5C       wariosel_info_26
 0005:00130DBC       wariosel_info_27
 0005:00130E28       wariosel_info_28
 0005:00130E88       wariosel_info_29
 0005:00130EE8       wariosel_info_30
 0005:00130F48       wariosel_info_31
 0005:00130FB4       wariosel_char_0
 0005:00131694       wariosel_char_1
 0005:00131D54       wariosel_char_2
 0005:001323D4       wariosel_char_3
 0005:00132A94       wariosel_char_4
 0005:00133114       wariosel_char_5
 0005:00133714       wariosel_char_6
 0005:00133D34       wariosel_char_7
 0005:001342D4       wariosel_char_8
 0005:00134894       wariosel_char_9
 0005:00134EB4       wariosel_char_10
 0005:001354F4       wariosel_char_11
 0005:00135B54       wariosel_char_12
 0005:001361B4       wariosel_char_13
 0005:00136814       wariosel_char_14
 0005:00136EB4       wariosel_char_15
 0005:00137514       wariosel_char_16
 0005:00137B74       wariosel_char_17
 0005:001381B4       wariosel_char_18
 0005:00138814       wariosel_char_19
 0005:00138E74       wariosel_char_20
 0005:001394B4       wariosel_char_21
 0005:00139AB4       wariosel_char_22
 0005:0013A034       wariosel_char_23
 0005:0013A5F4       wariosel_char_24
 0005:0013ABD4       wariosel_char_25
 0005:0013B1F4       wariosel_char_26
 0005:0013B894       wariosel_char_27
 0005:0013BF54       wariosel_char_28
 0005:0013C634       wariosel_char_29
 0005:0013CCB4       wariosel_char_30
 0005:0013D334       wariosel_char_31
 0005:0013DA34       wariosel_plt
 0005:0013DA54       yoshisel_frames
 0005:0013DC58       yoshisel_info_0
 0005:0013DC94       yoshisel_info_1
 0005:0013DCD0       yoshisel_info_2
 0005:0013DD00       yoshisel_info_3
 0005:0013DD24       yoshisel_info_4
 0005:0013DD48       yoshisel_info_5
 0005:0013DD6C       yoshisel_info_6
 0005:0013DD90       yoshisel_info_7
 0005:0013DDB4       yoshisel_info_8
 0005:0013DDD8       yoshisel_info_9
 0005:0013DE08       yoshisel_info_10
 0005:0013DE2C       yoshisel_info_11
 0005:0013DE68       yoshisel_info_12
 0005:0013DEA4       yoshisel_info_13
 0005:0013DEC8       yoshisel_info_14
 0005:0013DF04       yoshisel_info_15
 0005:0013DF34       yoshisel_info_16
 0005:0013DF70       yoshisel_info_17
 0005:0013DFA0       yoshisel_info_18
 0005:0013DFB8       yoshisel_info_19
 0005:0013DFE8       yoshisel_info_20
 0005:0013E018       yoshisel_info_21
 0005:0013E03C       yoshisel_info_22
 0005:0013E060       yoshisel_info_23
 0005:0013E084       yoshisel_info_24
 0005:0013E0A8       yoshisel_info_25
 0005:0013E0CC       yoshisel_info_26
 0005:0013E0F0       yoshisel_info_27
 0005:0013E114       yoshisel_info_28
 0005:0013E15C       yoshisel_info_29
 0005:0013E198       yoshisel_info_30
 0005:0013E1C8       yoshisel_info_31
 0005:0013E204       yoshisel_char_0
 0005:0013E4E4       yoshisel_char_1
 0005:0013E7A4       yoshisel_char_2
 0005:0013EA44       yoshisel_char_3
 0005:0013ECE4       yoshisel_char_4
 0005:0013EF84       yoshisel_char_5
 0005:0013F224       yoshisel_char_6
 0005:0013F4C4       yoshisel_char_7
 0005:0013F764       yoshisel_char_8
 0005:0013FA04       yoshisel_char_9
 0005:0013FCC4       yoshisel_char_10
 0005:0013FF64       yoshisel_char_11
 0005:0013FF70       aN
 0005:00140204       yoshisel_char_12
 0005:001404A4       yoshisel_char_13
 0005:00140744       yoshisel_char_14
 0005:00140A04       yoshisel_char_15
 0005:00140CC4       yoshisel_char_16
 0005:00140FA4       yoshisel_char_17
 0005:00141244       yoshisel_char_18
 0005:001414C4       yoshisel_char_19
 0005:00141764       yoshisel_char_20
 0005:00141A04       yoshisel_char_21
 0005:00141CA4       yoshisel_char_22
 0005:00141F44       yoshisel_char_23
 0005:001421E4       yoshisel_char_24
 0005:00142484       yoshisel_char_25
 0005:00142724       yoshisel_char_26
 0005:001429C4       yoshisel_char_27
 0005:00142C64       yoshisel_char_28
 0005:00142C6C       aW
 0005:00142F44       yoshisel_char_29
 0005:00143204       yoshisel_char_30
 0005:001434A4       yoshisel_char_31
 0005:00143764       yoshisel_plt
 0005:00143784       daisyselect_frames
 0005:00143798       daisyselect_info_0
 0005:001437A4       daisyselect_char_0
 0005:00143FA4       daisyselect_plt
 0005:00143FC4       diddyselect_frames
 0005:00143FD8       diddyselect_info_0
 0005:00143FE4       diddyselect_char_0
 0005:001447E4       diddyselect_plt
 0005:00144804       peachselect_frames
 0005:00144818       peachselect_info_0
 0005:00144824       peachselect_char_0
 0005:00145024       peachselect_plt
 0005:00145044       bowser_front_frames
 0005:00145058       bowser_front_info_0
 0005:00145064       bowser_front_char_0
 0005:00145864       bowser_front_plt
 0005:00145884       cranky_front_frames
 0005:00145898       cranky_front_info_0
 0005:001458A4       cranky_front_char_0
 0005:001460A4       cranky_front_plt
 0005:001460C4       krool_front_frames
 0005:001460D8       k_info_0
 0005:001460E4       k_char_0
 0005:001468E4       krool_front_plt
 0005:00146904       kong_front_frames
 0005:00146918       kong_front_info_0
 0005:00146924       kong_front_char_0
 0005:00147124       kong_front_plt
 0005:00147144       mario_front_frames
 0005:00147158       mario_front_info_0
 0005:00147164       mario_front_char_0
 0005:00147964       mario_front_plt
 0005:00147984       toad_front_frames
 0005:00147998       toad_front_info_0
 0005:001479A4       toad_front_char_0
 0005:001481A4       toad_front_plt
 0005:001481C4       wario_front_frames
 0005:001481D8       wario_front_info_0
 0005:001481E4       wario_front_char_0
 0005:001489E4       wario_front_plt
 0005:00148A04       yoshi_front_frames
 0005:00148A18       yoshi_front_info_0
 0005:00148A24       yoshi_front_char_0
 0005:00149224       yoshi_front_plt
 0005:00149244       funky_front_frames
 0005:00149258       funky_front_info_0
 0005:00149264       funky_front_char_0
 0005:00149A64       funky_front_plt
 0005:00149A84       twit_bunch_frames
 0005:00149A98       twit_bunch_info_0
 0005:00149BB8       twit_bunch_char_0
 0005:0014E438       twit_bunch_plt
 0005:0014E638       introanim_frames
 0005:0014E82C       introanim_info_0
 0005:0014E844       introanim_info_1
 0005:0014E868       introanim_info_2
 0005:0014E88C       introanim_info_3
 0005:0014E8BC       introanim_info_4
 0005:0014E8E0       introanim_info_5
 0005:0014E8F8       introanim_info_6
 0005:0014E910       introanim_info_7
 0005:0014E934       introanim_info_8
 0005:0014E958       introanim_info_9
 0005:0014E9A0       introanim_info_13
 0005:0014E9D0       introanim_info_14
 0005:0014EA24       introanim_info_15
 0005:0014EA78       introanim_info_16
 0005:0014EACC       introanim_info_17
 0005:0014EB2C       introanim_info_18
 0005:0014EB98       introanim_info_19
 0005:0014EBEC       introanim_info_20
 0005:0014EC10       introanim_info_21
 0005:0014EC1C       introanim_char_0
 0005:0014ECBC       introanim_char_1
 0005:0014ED7C       introanim_char_2
 0005:0014EE3C       introanim_char_3
 0005:0014EF3C       introanim_char_4
 0005:0014F07C       introanim_char_5
 0005:0014F1BC       introanim_char_6
 0005:0014F2FC       introanim_char_7
 0005:0014F49C       introanim_char_8
 0005:0014F63C       introanim_char_9
 0005:0014F83C       introanim_char_13
 0005:0014FB1C       introanim_char_14
 0005:0014FE7C       introanim_char_15
 0005:001502DC       introanim_char_16
 0005:0015093C       introanim_char_17
 0005:0015105C       introanim_char_18
 0005:0015175C       introanim_char_19
 0005:00151ADC       introanim_char_20
 0005:00151BBC       introanim_char_21
 0005:00151BFC       introanim2_frames
 0005:00151DF0       introanim2_info_0
 0005:00151DFC       introanim2_info_6
 0005:00151E08       introanim2_info_7
 0005:00151E14       introanim2_info_8
 0005:00151E2C       introanim2_info_9
 0005:00151E44       introanim2_info_10
 0005:00151E68       introanim2_info_11
 0005:00151EA4       introanim2_info_12
 0005:00151EBC       introanim2_info_13
 0005:00151ED4       introanim2_info_14
 0005:00151EF8       introanim2_info_15
 0005:00151F10       introanim2_info_16
 0005:00151F4C       introanim2_info_17
 0005:00151F94       introanim2_info_20
 0005:00151FF4       introanim2_info_21
 0005:00152030       introanim2_info_22
 0005:00152078       introanim2_info_23
 0005:001520F0       introanim2_info_24
 0005:00152168       introanim2_info_25
 0005:001521BC       introanim2_info_26
 0005:00152228       introanim2_info_27
 0005:001522AC       introanim2_info_28
 0005:00152300       introanim2_info_29
 0005:0015233C       introanim2_info_30
 0005:00152348       introanim2_char_0
 0005:00152368       introanim2_char_6
 0005:001523A8       introanim2_char_7
 0005:00152428       introanim2_char_8
 0005:001524C8       introanim2_char_9
 0005:001525C8       introanim2_char_10
 0005:00152768       introanim2_char_11
 0005:00152968       introanim2_char_12
 0005:00152BA8       introanim2_char_13
 0005:00152DE8       introanim2_char_14
 0005:00153048       introanim2_char_15
 0005:001532C8       introanim2_char_16
 0005:001535C8       introanim2_char_17
 0005:001538E8       introanim2_char_20
 0005:00153CC8       introanim2_char_21
 0005:001541A8       introanim2_char_22
 0005:001546C8       introanim2_char_23
 0005:00154D08       introanim2_char_24
 0005:00155488       introanim2_char_25
 0005:00155E28       introanim2_char_26
 0005:00156968       introanim2_char_27
 0005:001575A8       introanim2_char_28
 0005:00158088       introanim2_char_29
 0005:001583E8       introanim2_char_30
 0005:00158468       introanim3_frames
 0005:0015865C       introanim3_info_0
 0005:00158674       introanim3_info_8
 0005:00158698       introanim3_info_9
 0005:001586C8       introanim3_info_10
 0005:001586EC       introanim3_info_11
 0005:0015871C       introanim3_info_12
 0005:00158734       introanim3_info_13
 0005:0015874C       introanim3_info_14
 0005:00158770       introanim3_info_15
 0005:00158794       introanim3_info_16
 0005:001587B8       introanim3_info_17
 0005:001587DC       introanim3_info_18
 0005:0015880C       introanim3_info_19
 0005:00158830       introanim3_info_20
 0005:00158860       introanim3_info_21
 0005:00158878       introanim3_info_22
 0005:0015889C       introanim3_info_23
 0005:001588B4       introanim3_info_24
 0005:001588CC       introanim3_info_25
 0005:001588D8       introanim3_char_0
 0005:00158978       introanim3_char_8
 0005:00158A38       introanim3_char_9
 0005:00158B38       introanim3_char_10
 0005:00158C98       introanim3_char_11
 0005:00158E18       introanim3_char_12
 0005:00158F58       introanim3_char_13
 0005:00159098       introanim3_char_14
 0005:001591B8       introanim3_char_15
 0005:001592D8       introanim3_char_16
 0005:001593F8       introanim3_char_17
 0005:00159518       introanim3_char_18
 0005:00159658       introanim3_char_19
 0005:00159778       introanim3_char_20
 0005:001598B8       introanim3_char_21
 0005:001599F8       introanim3_char_22
 0005:00159B58       introanim3_char_23
 0005:00159C98       introanim3_char_24
 0005:00159DD8       introanim3_char_25
 0005:00159E58       introanim4_frames
 0005:0015A04C       introanim4_info_0
 0005:0015A064       introanim4_info_2
 0005:0015A088       introanim4_info_3
 0005:0015A0A0       introanim4_info_4
 0005:0015A0F4       introanim4_info_5
 0005:0015A148       introanim4_info_6
 0005:0015A178       introanim4_info_7
 0005:0015A19C       introanim4_info_8
 0005:0015A1F0       introanim4_info_9
 0005:0015A220       introanim4_info_10
 0005:0015A244       introanim4_info_11
 0005:0015A274       introanim4_info_12
 0005:0015A2BC       introanim4_info_13
 0005:0015A2E0       introanim4_info_14
 0005:0015A310       introanim4_info_15
 0005:0015A364       introanim4_info_16
 0005:0015A3A0       introanim4_info_17
 0005:0015A3B8       introanim4_info_18
 0005:0015A3DC       introanim4_info_19
 0005:0015A424       introanim4_info_20
 0005:0015A448       introanim4_info_21
 0005:0015A460       introanim4_info_22
 0005:0015A478       introanim4_info_23
 0005:0015A49C       introanim4_info_24
 0005:0015A4B4       introanim4_info_25
 0005:0015A4CC       introanim4_info_26
 0005:0015A4E4       introanim4_info_27
 0005:0015A4FC       introanim4_info_28
 0005:0015A514       introanim4_info_29
 0005:0015A520       introanim4_char_0
 0005:0015A5C0       introanim4_char_2
 0005:0015A720       introanim4_char_3
 0005:0015A940       introanim4_char_4
 0005:0015AB80       introanim4_char_5
 0005:0015AE00       introanim4_char_6
 0005:0015B080       introanim4_char_7
 0005:0015B2E0       introanim4_char_8
 0005:0015B520       introanim4_char_9
 0005:0015B780       introanim4_char_10
 0005:0015B9C0       introanim4_char_11
 0005:0015BC20       introanim4_char_12
 0005:0015BE40       introanim4_char_13
 0005:0015C080       introanim4_char_14
 0005:0015C2E0       introanim4_char_15
 0005:0015C520       introanim4_char_16
 0005:0015C780       introanim4_char_17
 0005:0015CA00       introanim4_char_18
 0005:0015CC40       introanim4_char_19
 0005:0015CEA0       introanim4_char_20
 0005:0015D100       introanim4_char_21
 0005:0015D340       introanim4_char_22
 0005:0015D580       introanim4_char_23
 0005:0015D7E0       introanim4_char_24
 0005:0015DA20       introanim4_char_25
 0005:0015DCA0       introanim4_char_26
 0005:0015DF20       introanim4_char_27
 0005:0015E1A0       introanim4_char_28
 0005:0015E2C0       introanim4_char_29
 0005:0015E2E0       introanim4_char_30
 0005:0015E4E0       kroolpic1_frames
 0005:0015E4F4       kroolpic1_info_0
 0005:0015E50C       kroolpic1_char_0
 0005:0015FD0C       kroolpic1_1_frames
 0005:0015FD70       kroolpic1_1_info_0
 0005:0015FD88       kroolpic1_1_info_1
 0005:0015FDB8       kroolpic1_1_info_2
 0005:0015FE00       kroolpic1_1_info_3
 0005:0015FE48       kroolpic1_1_info_4
 0005:0015FE90       kroolpic1_1_info_5
 0005:0015FED8       kroolpic1_1_char_0
 0005:001604D8       kroolpic1_1_char_1
 0005:00160C58       kroolpic1_1_char_2
 0005:00161318       kroolpic1_1_char_3
 0005:00161698       kroolpic1_1_char_4
 0005:00161CD8       kroolpic1_1_char_5
 0005:001623D8       kroolpic2_plt
 0005:001625D8       kroolpic2_frames
 0005:001625EC       kroolpic2_info_0
 0005:00162604       kroolpic2_char_0
 0005:00163E04       kroolpic3_plt
 0005:00164004       kroolpic3_frames
 0005:00164018       kroolpic3_info_0
 0005:00164030       kroolpic3_char_0
 0005:00165830       krool_all_the_guardians_plt
 0005:00165A30       krool_all_the_guardians_frames
 0005:00165A44       krool_all_the_guardians_info_0
 0005:00165A5C       krool_all_the_guardians_char_0
 0005:0016725C       krool_find_map_plt
 0005:0016745C       krool_find_map_frames
 0005:00167470       krool_find_map_info_0
 0005:00167488       krool_find_map_char_0
 0005:00168C88       krool_stone_map_plt
 0005:00168E88       krool_stone_map_frames
 0005:00168E9C       krool_stone_map_info_0
 0005:00168EB4       krool_stone_map_char_0
 0005:0016A6B4       krool_temple_plt
 0005:0016A8B4       krool_temple_frames
 0005:0016A8C8       krool_temple_info_0
 0005:0016A8E0       krool_temple_char_0
 0005:0016C0E0       krool_looking_plt
 0005:0016C2E0       krool_looking_frames
 0005:0016C2F4       krool_looking_info_0
 0005:0016C30C       krool_looking_char_0
 0005:0016DB0C       krool_lost_island_plt
 0005:0016DD0C       krool_lost_island_frames
 0005:0016DD20       krool_lost_island_info_0
 0005:0016DD38       krool_lost_island_char_0
 0005:0016F538       krool_talking_plt
 0005:0016F738       krool_talking_frames
 0005:0016F74C       krool_talking_info_0
 0005:0016F764       krool_talking_char_0
 0005:00170F64       krool_talking2_frames
 0005:00170F78       krool_talking2_info_0
 0005:00170F84       krool_talking2_char_0
 0005:00171384       krool_blue_guard_plt
 0005:00171584       krool_blue_guard_frames
 0005:00171598       krool_blue_guard_info_0
 0005:001715B0       krool_blue_guard_char_0
 0005:00172DB0       krool_red_guard_plt
 0005:00172FB0       krool_red_guard_frames
 0005:00172FC4       krool_red_guard_info_0
 0005:00172FDC       krool_red_guard_char_0
 0005:001747DC       krool_green_guard_plt
 0005:001749DC       krool_green_guard_frames
 0005:001749F0       krool_green_guard_info_0
 0005:00174A08       krool_green_guard_char_0
 0005:00176208       krool_yellow_guard_plt
 0005:00176408       krool_yellow_guard_frames
 0005:0017641C       krool_yellow_guard_info_0
 0005:00176434       krool_yellow_guard_char_0
 0005:00177C34       krool_podium_plt
 0005:00177E34       krool_podium_frames
 0005:00177E48       krool_podium_info_0
 0005:00177E60       krool_podium_char_0
 0005:00179660       krool_podium_red_frames
 0005:00179674       krool_podium_red_info_0
 0005:0017968C       krool_podium_red_char_0
 0005:00179B0C       krool_podium_green_frames
 0005:00179B20       krool_podium_green_info_0
 0005:00179B38       krool_podium_green_char_0
 0005:00179FB8       krool_podium_blue_frames
 0005:00179FCC       krool_podium_blue_info_0
 0005:00179FF0       krool_podium_blue_char_0
 0005:0017A370       krool_podium_yellow_frames
 0005:0017A384       krool_podium_yellow_info_0
 0005:0017A39C       krool_podium_yellow_char_0
 0005:0017A81C       genie_lamp_anim_frames
 0005:0017A8E0       genie_lamp_anim_info_0
 0005:0017A8F8       genie_lamp_anim_info_1
 0005:0017A910       genie_lamp_anim_info_2
 0005:0017A928       genie_lamp_anim_info_3
 0005:0017A940       genie_lamp_anim_info_4
 0005:0017A958       genie_lamp_anim_info_5
 0005:0017A970       genie_lamp_anim_info_6
 0005:0017A988       genie_lamp_anim_info_7
 0005:0017A9C4       genie_lamp_anim_info_8
 0005:0017AA00       genie_lamp_anim_info_9
 0005:0017AA3C       genie_lamp_anim_info_10
 0005:0017AA60       genie_lamp_anim_info_11
 0005:0017AA6C       genie_lamp_anim_char_0
 0005:0017ABEC       genie_lamp_anim_char_1
 0005:0017AD6C       genie_lamp_anim_char_2
 0005:0017AEEC       genie_lamp_anim_char_3
 0005:0017B06C       genie_lamp_anim_char_4
 0005:0017B1EC       genie_lamp_anim_char_5
 0005:0017B36C       genie_lamp_anim_char_6
 0005:0017B4EC       genie_lamp_anim_char_7
 0005:0017B6AC       genie_lamp_anim_char_8
 0005:0017B86C       genie_lamp_anim_char_9
 0005:0017BA2C       genie_lamp_anim_char_10
 0005:0017BBEC       genie_lamp_anim_char_11
 0005:0017BDEC       genie_lamp_anim_plt
 0005:0017BE0C       haunted_woods_02_frames
 0005:0017BED0       haunted_woods_02_info_0
 0005:0017BEDC       haunted_woods_02_info_1
 0005:0017BEE8       haunted_woods_02_info_2
 0005:0017BF00       haunted_woods_02_info_3
 0005:0017BF24       haunted_woods_02_info_4
 0005:0017BF48       haunted_woods_02_info_5
 0005:0017BF60       haunted_woods_02_info_6
 0005:0017BF78       haunted_woods_02_info_7
 0005:0017BF90       haunted_woods_02_info_8
 0005:0017BFB4       haunted_woods_02_info_9
 0005:0017BFD8       haunted_woods_02_info_10
 0005:0017C008       haunted_woods_02_info_11
 0005:0017C038       haunted_woods_02_char_0
 0005:0017C138       haunted_woods_02_char_1
 0005:0017C238       haunted_woods_02_char_2
 0005:0017C358       haunted_woods_02_char_3
 0005:0017C498       haunted_woods_02_char_4
 0005:0017C5D8       haunted_woods_02_char_5
 0005:0017C718       haunted_woods_02_char_6
 0005:0017C858       haunted_woods_02_char_7
 0005:0017C998       haunted_woods_02_char_8
 0005:0017CAF8       haunted_woods_02_char_9
 0005:0017CC58       haunted_woods_02_char_10
 0005:0017CDD8       haunted_woods_02_char_11
 0005:0017CF58       haunted_woods_02_plt
 0005:0017CF78       keep_grow_frames
 0005:0017D03C       keep_grow_info_0
 0005:0017D054       keep_grow_info_1
 0005:0017D06C       keep_grow_info_2
 0005:0017D084       keep_grow_info_3
 0005:0017D09C       keep_grow_info_4
 0005:0017D0B4       keep_grow_info_5
 0005:0017D0D8       keep_grow_info_6
 0005:0017D0F0       keep_grow_info_7
 0005:0017D108       keep_grow_info_8
 0005:0017D120       keep_grow_info_9
 0005:0017D138       keep_grow_info_10
 0005:0017D150       keep_grow_info_11
 0005:0017D168       keep_grow_char_0
 0005:0017D228       keep_grow_char_1
 0005:0017D2E8       keep_grow_char_2
 0005:0017D3A8       keep_grow_char_3
 0005:0017D468       keep_grow_char_4
 0005:0017D528       keep_grow_char_5
 0005:0017D608       keep_grow_char_6
 0005:0017D748       keep_grow_char_7
 0005:0017D888       keep_grow_char_8
 0005:0017DA08       keep_grow_char_9
 0005:0017DA19       aIk
 0005:0017DA1D       aKk
 0005:0017DA21       aUkz
 0005:0017DB88       keep_grow_char_10
 0005:0017DD08       keep_grow_char_11
 0005:0017DE88       keep_grow_plt
 0005:0017DEA8       beach_grow_frames
 0005:0017DF6C       beach_grow_info_0
 0005:0017DF84       beach_grow_info_1
 0005:0017DF9C       beach_grow_info_2
 0005:0017DFB4       beach_grow_info_3
 0005:0017DFCC       beach_grow_info_4
 0005:0017DFF0       beach_grow_info_5
 0005:0017E020       beach_grow_info_6
 0005:0017E044       beach_grow_info_7
 0005:0017E068       beach_grow_info_8
 0005:0017E080       beach_grow_info_9
 0005:0017E0A4       beach_grow_info_10
 0005:0017E0C8       beach_grow_info_11
 0005:0017E0EC       beach_grow_char_0
 0005:0017E1AC       beach_grow_char_1
 0005:0017E26C       beach_grow_char_2
 0005:0017E32C       beach_grow_char_3
 0005:0017E3EC       beach_grow_char_4
 0005:0017E4CC       beach_grow_char_5
 0005:0017E60C       beach_grow_char_6
 0005:0017E76C       beach_grow_char_7
 0005:0017E8AC       beach_grow_char_8
 0005:0017EA2C       beach_grow_char_9
 0005:0017EBCC       beach_grow_char_10
 0005:0017ED6C       beach_grow_char_11
 0005:0017EF0C       beach_grow_plt
 0005:0017EF2C       krool_text_page_0
 0005:0017EF50       krool_text_page_1
 0005:0017EF74       krool_text_page_2
 0005:0017EF98       krool_text_page_3
 0005:0017EFBC       krool_text_page_4
 0005:0017EFE0       krool_text_page_5
 0005:0017F004       krool_text_page_6
 0005:0017F028       krool_text_page_7
 0005:0017F04C       krool_text_page_8
 0005:0017F070       krool_text_page_9
 0005:0017F094       krool_text_page_10
 0005:0017F0B8       krool_text_page_11
 0005:0017F0DC       krool_text_page_12
 0005:0017F100       krool_text_page_13
 0005:0017F124       krool_text_page_14
 0005:0017F148       krool_text_page_15
 0005:0017F16C       krool_text_page_16
 0005:0017F190       krool_text_page_17
 0005:0017F1B4       krool_text_page_18
 0005:0017F1D8       krool_text_page_19
 0005:0017F1FC       krool_text_page_20
 0005:0017F220       krool_text_page_21
 0005:0017F244       krool_text_page_22
 0005:0017F268       krool_text_page_23
 0005:0017F28C       krool_text_page_24
 0005:0017F2B0       krool_text_page_25
 0005:0017F2D4       krool_text_page_26
 0005:0017F2F8       krool_text_page_27
 0005:0017F31C       krool_text_page_28
 0005:0017F340       krool_text_page_29
 0005:0017F364       krool_text_page_30
 0005:0017F388       krool_text_page_31
 0005:0017F3AC       krool_text_page_32
 0005:0017F3D0       krool_text_page_33
 0005:0017F3F4       krool_text_page_34
 0005:0017F418       krool_text_page_35
 0005:0017F43C       krool_text_page_36
 0005:0017F460       krool_text_page_37
 0005:0017F484       krool_text_page_38
 0005:0017F4A8       krool_text_page_39
 0005:0017F4CC       krool_text_page_40
 0005:0017F4F0       krool_text_page_41
 0005:0017F514       krool_text_page_42
 0005:0017F538       krool_text_page_43
 0005:0017F55C       krool_text_page_44
 0005:0017F580       krool_text_page_45
 0005:0017F5A4       krool_text_page_46
 0005:0017F5C8       krool_text_page_47
 0005:0017F5EC       krool_text_page_48
 0005:0017F610       krool_text_page_49
 0005:0017F634       krool_text_page_50
 0005:0017F658       krool_text_page_51
 0005:0017F67C       krool_text_page_52
 0005:0017F6A0       krool_text_page_53
 0005:0017F6C4       krool_text_page_54
 0005:0017F6E8       krool_text_page_55
 0005:0017F70C       krool_text_page_56
 0005:0017F730       krool_text_page_57
 0005:0017F754       krool_text_page_58
 0005:0017F778       krool_text_page_59
 0005:0017F79C       krool_text_page_60
 0005:0017F7C0       krool_text_page_61
 0005:0017F7E4       krool_text_page_62
 0005:0017F808       krool_text_page_63
 0005:0017F82C       krool_text_page_64
 0005:0017F850       krool_text_page_65
 0005:0017F874       krool_text_page_66
 0005:0017F898       krool_text_page_67
 0005:0017F8BC       krool_text_page_68
 0005:0017F8E0       krool_text_page_69
 0005:0017F904       krool_text_page_70
 0005:0017F928       krool_text_page_71
 0005:0017F94C       krool_text_page_72
 0005:0017F970       krool_text_page_73
 0005:0017F994       krool_text_page_74
 0005:0017F9B8       krool_text_page_75
 0005:0017F9DC       krool_text_page_76
 0005:0017FA00       krool_text_page_77
 0005:0017FA24       krool_text_page_78
 0005:0017FA48       krool_text_page_79
 0005:0017FA6C       krool_text_page_80
 0005:0017FA90       krool_text_page_81
 0005:0017FAB4       krool_text_page_82
 0005:0017FAD8       krool_text_page_83
 0005:0017FAFC       krool_text_page_84
 0005:0017FB20       krool_text_page_85
 0005:0017FB44       krool_text_page_86
 0005:0017FB68       krool_text_page_87
 0005:0017FB8C       krool_text_page_88
 0005:0017FBB0       krool_text_page_89
 0005:0017FBD4       krool_text_page_90
 0005:0017FBF8       krool_text_page_91
 0005:0017FC1C       krool_text_page_92
 0005:0017FC40       krool_text_page_93
 0005:0017FC64       krool_text_page_94
 0005:0017FC88       krool_text_page_95
 0005:0017FCAC       krool_text_page_96
 0005:0017FCD0       krool_text_page_97
 0005:0017FCF4       krool_text_page_98
 0005:0017FD18       krool_text_page_99
 0005:0017FD3C       krool_text_page_100
 0005:0017FD60       krool_text
 0005:0017FEF4       krool_text_blank
 0005:0017FEF5       krool_text_0
 0005:0017FF05       krool_text_1
 0005:0017FF13       krool_text_2
 0005:0017FF23       krool_text_3
 0005:0017FF2E       krool_text_4
 0005:0017FF3D       krool_text_5
 0005:0017FF4B       krool_text_6
 0005:0017FF5A       krool_text_7
 0005:0017FF60       krool_text_8
 0005:0017FF6E       krool_text_9
 0005:0017FF7D       krool_text_10
 0005:0017FF89       krool_text_11
 0005:0017FF96       krool_text_12
 0005:0017FFA5       krool_text_13
 0005:0017FFB3       krool_text_14
 0005:0017FFC2       krool_text_15
 0005:0017FFD1       krool_text_16
 0005:0017FFE1       krool_text_17
 0005:0017FFEF       krool_text_18
 0005:00180000       krool_text_19
 0005:0018000F       krool_text_20
 0005:00180018       krool_text_21
 0005:00180027       krool_text_22
 0005:00180035       krool_text_23
 0005:00180040       krool_text_24
 0005:0018004D       krool_text_25
 0005:00180054       krool_text_26
 0005:00180062       krool_text_27
 0005:00180072       krool_text_28
 0005:00180080       krool_text_29
 0005:0018008F       krool_text_30
 0005:0018009C       krool_text_31
 0005:001800A9       krool_text_32
 0005:001800B6       krool_text_33
 0005:001800C5       krool_text_34
 0005:001800D5       krool_text_35
 0005:001800E4       krool_text_36
 0005:001800F2       krool_text_37
 0005:00180101       krool_text_38
 0005:0018010F       krool_text_39
 0005:0018011F       krool_text_40
 0005:0018012C       krool_text_41
 0005:0018013A       krool_text_42
 0005:00180146       krool_text_43
 0005:00180153       krool_text_44
 0005:00180162       krool_text_45
 0005:00180170       krool_text_46
 0005:0018017E       krool_text_47
 0005:0018018A       krool_text_48
 0005:00180197       krool_text_49
 0005:001801A6       krool_text_50
 0005:001801B7       krool_text_51
 0005:001801CB       krool_text_52
 0005:001801DC       krool_text_53
 0005:001801ED       krool_text_54
 0005:001801FB       krool_text_55
 0005:0018020B       krool_text_56
 0005:0018021B       krool_text_57
 0005:00180228       krool_text_58
 0005:00180237       krool_text_59
 0005:00180248       krool_text_60
 0005:00180253       krool_text_61
 0005:00180261       krool_text_62
 0005:00180271       krool_text_63
 0005:00180281       krool_text_64
 0005:00180291       krool_text_65
 0005:001802A1       krool_text_66
 0005:001802AF       krool_text_67
 0005:001802BD       krool_text_68
 0005:001802C6       krool_text_69
 0005:001802D3       krool_text_70
 0005:001802DD       krool_text_71
 0005:001802EB       krool_text_72
 0005:001802F7       krool_text_73
 0005:00180306       krool_text_74
 0005:00180315       krool_text_75
 0005:0018031F       krool_text_76
 0005:00180331       krool_text_77
 0005:00180341       krool_text_78
 0005:00180351       krool_text_79
 0005:0018035F       krool_text_80
 0005:0018036A       krool_text_81
 0005:00180378       krool_text_82
 0005:00180388       krool_text_83
 0005:00180398       krool_text_84
 0005:001803A9       krool_text_85
 0005:001803BA       krool_text_86
 0005:001803C8       krool_text_87
 0005:001803D8       krool_text_88
 0005:001803E7       krool_text_89
 0005:001803F5       krool_text_90
 0005:00180402       krool_text_91
 0005:00180411       krool_text_92
 0005:00180420       krool_text_93
 0005:0018042E       krool_text_94
 0005:00180439       krool_text_95
 0005:00180447       krool_text_96
 0005:00180455       krool_text_97
 0005:00180465       krool_text_98
 0005:00180473       krool_text_99
 0005:00180483       krool_text_100
 0005:00180493       krool_text_101
 0005:001804A3       krool_text_102
 0005:001804B0       krool_text_103
 0005:001804BE       krool_text_104
 0005:001804CB       krool_text_105
 0005:001804DB       krool_text_106
 0005:001804E9       krool_text_107
 0005:001804F7       krool_text_108
 0005:00180504       krool_text_109
 0005:00180513       krool_text_110
 0005:00180523       krool_text_111
 0005:00180530       krool_text_112
 0005:0018053B       krool_text_113
 0005:00180545       krool_text_114
 0005:00180550       krool_text_115
 0005:0018055C       krool_text_116
 0005:0018056C       krool_text_117
 0005:00180578       krool_text_118
 0005:00180589       krool_text_119
 0005:00180594       krool_text_120
 0005:001805A5       krool_text_121
 0005:001805B3       krool_text_122
 0005:001805C0       krool_text_123
 0005:001805CF       krool_text_124
 0005:001805DE       krool_text_125
 0005:001805EF       krool_text_126
 0005:001805FB       krool_text_127
 0005:0018060A       krool_text_128
 0005:00180619       krool_text_129
 0005:00180627       krool_text_130
 0005:00180636       krool_text_131
 0005:00180645       krool_text_132
 0005:00180655       krool_text_133
 0005:00180660       krool_text_134
 0005:0018066C       krool_text_135
 0005:0018067B       krool_text_136
 0005:00180687       krool_text_137
 0005:00180697       krool_text_138
 0005:001806A6       krool_text_139
 0005:001806B4       krool_text_140
 0005:001806BC       krool_text_141
 0005:001806CC       krool_text_142
 0005:001806DD       krool_text_143
 0005:001806EC       krool_text_144
 0005:001806F9       krool_text_145
 0005:00180706       krool_text_146
 0005:00180712       krool_text_147
 0005:00180721       krool_text_148
 0005:0018072E       krool_text_149
 0005:0018073B       krool_text_150
 0005:0018074A       krool_text_151
 0005:00180755       krool_text_152
 0005:00180766       krool_text_153
 0005:00180775       krool_text_154
 0005:00180784       krool_text_155
 0005:00180791       krool_text_156
 0005:0018079C       krool_text_157
 0005:001807A7       krool_text_158
 0005:001807B8       krool_text_159
 0005:001807C5       krool_text_160
 0005:001807D3       krool_text_161
 0005:001807E3       krool_text_162
 0005:001807F1       krool_text_163
 0005:001807FD       krool_text_164
 0005:0018080C       krool_text_165
 0005:0018081A       krool_text_166
 0005:00180829       krool_text_167
 0005:0018083A       krool_text_168
 0005:0018084A       krool_text_169
 0005:00180852       krool_text_170
 0005:0018085C       krool_text_171
 0005:0018086C       krool_text_172
 0005:0018087B       krool_text_173
 0005:00180889       krool_text_174
 0005:00180893       krool_text_175
 0005:0018089F       krool_text_176
 0005:001808AE       krool_text_177
 0005:001808BD       krool_text_178
 0005:001808CB       krool_text_179
 0005:001808D6       krool_text_180
 0005:001808E5       krool_text_181
 0005:001808F4       krool_text_182
 0005:00180903       krool_text_183
 0005:0018090E       krool_text_184
 0005:0018091D       krool_text_185
 0005:00180928       krool_text_186
 0005:0018092F       krool_text_187
 0005:0018093F       krool_text_188
 0005:0018094F       krool_text_189
 0005:0018095F       krool_text_190
 0005:0018096D       krool_text_191
 0005:0018097B       krool_text_192
 0005:00180989       krool_text_193
 0005:00180999       krool_text_194
 0005:001809AB       krool_text_195
 0005:001809B8       krool_text_196
 0005:001809C4       krool_text_197
 0005:001809D1       krool_text_198
 0005:001809E1       krool_text_199
 0005:001809EF       krool_text_200
 0005:001809FE       krool_text_201
 0005:00180A0A       krool_text_202
 0005:00180A19       krool_text_203
 0005:00180A2A       krool_text_204
 0005:00180A35       krool_text_205
 0005:00180A44       krool_text_206
 0005:00180A50       krool_text_207
 0005:00180A60       krool_text_208
 0005:00180A6C       krool_text_209
 0005:00180A78       krool_text_210
 0005:00180A86       krool_text_211
 0005:00180A92       krool_text_212
 0005:00180A9F       krool_text_213
 0005:00180AA7       krool_text_214
 0005:00180AB6       krool_text_215
 0005:00180AC3       krool_text_216
 0005:00180AD1       krool_text_217
 0005:00180AE0       krool_text_218
 0005:00180AEC       krool_text_219
 0005:00180AFA       krool_text_220
 0005:00180B08       krool_text_221
 0005:00180B15       krool_text_222
 0005:00180B20       krool_text_223
 0005:00180B28       krool_text_224
 0005:00180B34       krool_text_225
 0005:00180B40       krool_text_226
 0005:00180B50       krool_text_227
 0005:00180B5F       krool_text_228
 0005:00180B68       krool_text_229
 0005:00180B78       krool_text_230
 0005:00180B86       krool_text_231
 0005:00180B92       krool_text_232
 0005:00180BA1       krool_text_233
 0005:00180BB1       krool_text_234
 0005:00180BC2       krool_text_235
 0005:00180BD4       krool_text_236
 0005:00180BE5       krool_text_237
 0005:00180BF3       krool_text_238
 0005:00180C04       krool_text_239
 0005:00180C10       krool_text_240
 0005:00180C1A       krool_text_241
 0005:00180C28       krool_text_242
 0005:00180C36       krool_text_243
 0005:00180C46       krool_text_244
 0005:00180C55       krool_text_245
 0005:00180C63       krool_text_246
 0005:00180C6F       krool_text_247
 0005:00180C7E       krool_text_248
 0005:00180C8F       krool_text_249
 0005:00180CA0       krool_text_250
 0005:00180CAF       krool_text_251
 0005:00180CBC       krool_text_252
 0005:00180CCB       krool_text_253
 0005:00180CD7       krool_text_254
 0005:00180CE5       krool_text_255
 0005:00180CED       krool_text_256
 0005:00180CF6       krool_text_257
 0005:00180D05       krool_text_258
 0005:00180D14       krool_text_259
 0005:00180D22       krool_text_260
 0005:00180D30       krool_text_261
 0005:00180D3B       krool_text_262
 0005:00180D49       krool_text_263
 0005:00180D57       krool_text_264
 0005:00180D66       krool_text_265
 0005:00180D74       krool_text_266
 0005:00180D85       krool_text_267
 0005:00180D92       krool_text_268
 0005:00180D9F       krool_text_269
 0005:00180DAE       krool_text_270
 0005:00180DBA       krool_text_271
 0005:00180DC7       krool_text_272
 0005:00180DDA       krool_text_273
 0005:00180DEB       krool_text_274
 0005:00180DF1       krool_text_275
 0005:00180DFE       krool_text_276
 0005:00180E0D       krool_text_277
 0005:00180E18       krool_text_278
 0005:00180E27       krool_text_279
 0005:00180E38       krool_text_280
 0005:00180E48       krool_text_281
 0005:00180E56       krool_text_282
 0005:00180E63       krool_text_283
 0005:00180E6E       krool_text_284
 0005:00180E7D       krool_text_285
 0005:00180E8B       krool_text_286
 0005:00180E99       krool_text_287
 0005:00180EA8       krool_text_288
 0005:00180EB4       krool_text_289
 0005:00180EC2       krool_text_290
 0005:00180ECD       krool_text_291
 0005:00180ED7       krool_text_292
 0005:00180EE1       krool_text_293
 0005:00180EEF       krool_text_294
 0005:00180EFA       krool_text_295
 0005:00180F08       krool_text_296
 0005:00180F19       krool_text_297
 0005:00180F28       krool_text_298
 0005:00180F38       krool_text_299
 0005:00180F48       krool_text_300
 0005:00180F58       krool_text_301
 0005:00180F5E       krool_text_302
 0005:00180F6E       krool_text_303
 0005:00180F7D       krool_text_304
 0005:00180F8D       krool_text_305
 0005:00180F9D       krool_text_306
 0005:00180FAA       krool_text_307
 0005:00180FBB       krool_text_308
 0005:00180FCD       krool_text_309
 0005:00180FDD       krool_text_310
 0005:00180FED       krool_text_311
 0005:00180FFE       krool_text_312
 0005:0018100D       krool_text_313
 0005:0018101F       krool_text_314
 0005:00181031       krool_text_315
 0005:0018103F       krool_text_316
 0005:0018104B       krool_text_317
 0005:0018105B       krool_text_318
 0005:00181069       krool_text_319
 0005:00181078       krool_text_320
 0005:00181083       krool_text_321
 0005:0018108E       krool_text_322
 0005:001810A0       krool_text_323
 0005:001810AE       krool_text_324
 0005:001810B7       krool_text_325
 0005:001810C0       krool_text_326
 0005:001810CF       krool_text_327
 0005:001810E0       krool_text_328
 0005:001810ED       krool_text_329
 0005:001810F9       krool_text_330
 0005:00181108       krool_text_331
 0005:00181116       krool_text_332
 0005:00181124       krool_text_333
 0005:00181130       krool_text_334
 0005:0018113F       krool_text_335
 0005:0018114F       krool_text_336
 0005:0018115E       krool_text_337
 0005:0018116E       krool_text_338
 0005:0018117C       krool_text_339
 0005:0018118C       krool_text_340
 0005:0018119B       krool_text_341
 0005:001811A8       krool_text_342
 0005:001811B8       krool_text_343
 0005:001811C2       krool_text_344
 0005:001811D1       krool_text_345
 0005:001811DD       krool_text_346
 0005:001811E6       krool_text_347
 0005:001811F6       krool_text_348
 0005:00181204       krool_text_349
 0005:00181212       krool_text_350
 0005:00181221       krool_text_351
 0005:00181230       krool_text_352
 0005:0018123E       krool_text_353
 0005:0018124D       krool_text_354
 0005:0018125C       krool_text_355
 0005:00181269       krool_text_356
 0005:00181275       krool_text_357
 0005:00181284       krool_text_358
 0005:00181292       krool_text_359
 0005:001812A0       krool_text_360
 0005:001812AC       krool_text_361
 0005:001812B8       krool_text_362
 0005:001812C6       krool_text_363
 0005:001812D4       krool_text_364
 0005:001812E2       krool_text_365
 0005:001812F1       krool_text_366
 0005:001812FB       krool_text_367
 0005:00181309       krool_text_368
 0005:0018131A       krool_text_369
 0005:0018132B       krool_text_370
 0005:0018133B       krool_text_371
 0005:0018134A       krool_text_372
 0005:00181355       krool_text_373
 0005:0018135F       krool_text_374
 0005:0018136A       krool_text_375
 0005:00181378       krool_text_376
 0005:00181382       krool_text_377
 0005:00181391       krool_text_378
 0005:0018139D       krool_text_379
 0005:001813AB       krool_text_380
 0005:001813BA       krool_text_381
 0005:001813C9       krool_text_382
 0005:001813D5       krool_text_383
 0005:001813E0       krool_text_384
 0005:001813F1       krool_text_385
 0005:00181401       krool_text_386
 0005:00181413       krool_text_387
 0005:00181421       krool_text_388
 0005:0018142E       krool_text_389
 0005:0018143E       krool_text_390
 0005:0018144E       krool_text_391
 0005:0018145F       krool_text_392
 0005:0018146E       krool_text_393
 0005:0018147B       krool_text_394
 0005:0018148B       krool_text_395
 0005:0018149B       krool_text_396
 0005:001814AA       krool_text_397
 0005:001814B0       krool_text_398
 0005:001814BF       krool_text_399
 0005:001814CF       krool_text_400
 0005:001814DD       krool_text_401
 0005:001814EA       krool_text_402
 0005:001814F8       krool_text_403
 0005:00181508       krool_text_404
 0005:00181515       krool_text_405
 0005:00181523       krool_text_406
 0005:0018152F       krool_text_407
 0005:00181540       krool_text_408
 0005:0018154D       krool_text_409
 0005:0018155C       krool_text_410
 0005:00181567       krool_text_411
 0005:00181575       krool_text_412
 0005:00181584       krool_text_413
 0005:0018158F       krool_text_414
 0005:0018159F       krool_text_415
 0005:001815AF       krool_text_416
 0005:001815C0       krool_text_417
 0005:001815CD       krool_text_418
 0005:001815DE       krool_text_419
 0005:001815EF       krool_text_420
 0005:001815FC       krool_text_421
 0005:0018160A       krool_text_422
 0005:00181619       krool_text_423
 0005:00181626       krool_text_424
 0005:00181632       krool_text_425
 0005:0018163E       krool_text_426
 0005:0018164B       krool_text_427
 0005:00181658       krool_text_428
 0005:00181668       krool_text_429
 0005:00181677       krool_text_430
 0005:00181685       krool_text_431
 0005:00181696       krool_text_432
 0005:001816A6       krool_text_433
 0005:001816B4       krool_text_434
 0005:001816C4       krool_text_435
 0005:001816D3       krool_text_436
 0005:001816E3       krool_text_437
 0005:001816F3       krool_text_438
 0005:001816FF       krool_text_439
 0005:0018170D       krool_text_440
 0005:00181714       krool_text_441
 0005:00181721       krool_text_442
 0005:0018172F       krool_text_443
 0005:0018173B       krool_text_444
 0005:00181748       krool_text_445
 0005:00181754       krool_text_446
 0005:00181763       krool_text_447
 0005:00181770       krool_text_448
 0005:00181780       krool_text_449
 0005:0018178D       krool_text_450
 0005:00181799       krool_text_451
 0005:001817A6       krool_text_452
 0005:001817B4       krool_text_453
 0005:001817C3       krool_text_454
 0005:001817D0       krool_text_455
 0005:001817DE       krool_text_456
 0005:001817EA       krool_text_457
 0005:001817F9       krool_text_458
 0005:00181809       krool_text_459
 0005:0018180F       krool_text_460
 0005:0018181C       krool_text_461
 0005:00181828       krool_text_462
 0005:00181837       krool_text_463
 0005:00181849       krool_text_464
 0005:00181859       krool_text_465
 0005:00181867       krool_text_466
 0005:00181875       krool_text_467
 0005:00181885       krool_text_468
 0005:00181894       krool_text_469
 0005:001818A6       krool_text_470
 0005:001818B3       krool_text_471
 0005:001818C2       krool_text_472
 0005:001818D0       krool_text_473
 0005:001818DD       krool_text_474
 0005:001818EB       krool_text_475
 0005:001818F8       krool_text_476
 0005:00181905       krool_text_477
 0005:0018190D       krool_text_478
 0005:00181918       krool_text_479
 0005:00181923       krool_text_480
 0005:00181932       krool_text_481
 0005:0018193E       krool_text_482
 0005:0018194D       krool_text_483
 0005:0018195C       krool_text_484
 0005:0018196B       krool_text_485
 0005:00181977       krool_text_486
 0005:00181987       krool_text_487
 0005:00181996       krool_text_488
 0005:001819A4       krool_text_489
 0005:001819B4       krool_text_490
 0005:001819C0       krool_text_491
 0005:001819CE       krool_text_492
 0005:001819DF       krool_text_493
 0005:001819EC       krool_text_494
 0005:001819FD       krool_text_495
 0005:00181A0C       krool_text_496
 0005:00181A1E       krool_text_497
 0005:00181A2B       krool_text_498
 0005:00181A38       krool_text_499
 0005:00181A49       krool_text_500
 0005:00181A52       krool_text_501
 0005:00181A63       krool_text_502
 0005:00181A6E       krool_text_503
 0005:00181A7D       krool_text_504
 0005:00181A8A       krool_text_505
 0005:00181A99       krool_text_506
 0005:00181AA6       krool_text_507
 0005:00181AB6       krool_text_508
 0005:00181AC2       krool_text_509
 0005:00181AD0       krool_text_510
 0005:00181ADD       krool_text_511
 0005:00181AEA       krool_text_512
 0005:00181AF4       krool_text_513
 0005:00181B01       krool_text_514
 0005:00181B06       krool_text_515
 0005:00181B13       krool_text_516
 0005:00181B1F       krool_text_517
 0005:00181B2E       krool_text_518
 0005:00181B3B       krool_text_519
 0005:00181B49       krool_text_520
 0005:00181B5A       krool_text_521
 0005:00181B6A       krool_text_522
 0005:00181B78       krool_text_523
 0005:00181B8A       krool_text_524
 0005:00181B9B       krool_text_525
 0005:00181BA9       krool_text_526
 0005:00181BB5       krool_text_527
 0005:00181BC1       krool_text_528
 0005:00181BCC       krool_text_529
 0005:00181BDD       krool_text_530
 0005:00181BEC       krool_text_531
 0005:00181BF9       krool_text_532
 0005:00181C06       krool_text_533
 0005:00181C16       krool_text_534
 0005:00181C24       krool_text_535
 0005:00181C34       krool_text_536
 0005:00181C44       krool_text_537
 0005:00181C4F       krool_text_538
 0005:00181C60       krool_text_539
 0005:00181C70       krool_text_540
 0005:00181C80       krool_text_541
 0005:00181C90       krool_text_542
 0005:00181C9E       krool_text_543
 0005:00181CA8       krool_text_544
 0005:00181CB0       krool_text_545
 0005:00181CBE       krool_text_546
 0005:00181CCB       krool_text_547
 0005:00181CD7       krool_text_548
 0005:00181CE6       krool_text_549
 0005:00181CEF       krool_text_550
 0005:00181CFA       krool_text_551
 0005:00181D09       krool_text_552
 0005:00181D12       krool_text_553
 0005:00181D21       krool_text_554
 0005:00181D2F       krool_text_555
 0005:00181D3F       krool_text_556
 0005:00181D48       krool_text_557
 0005:00181D59       krool_text_558
 0005:00181D68       krool_text_559
 0005:00181D6E       krool_text_560
 0005:00181D80       krool_text_561
 0005:00181D8D       krool_text_562
 0005:00181D9A       krool_text_563
 0005:00181DA9       krool_text_564
 0005:00181DB9       krool_text_565
 0005:00181DCA       krool_text_566
 0005:00181DDF       krool_text_567
 0005:00181DEC       krool_text_568
 0005:00181DF9       krool_text_569
 0005:00181E07       krool_text_570
 0005:00181E17       krool_text_571
 0005:00181E23       krool_text_572
 0005:00181E2E       krool_text_573
 0005:00181E3B       krool_text_574
 0005:00181E4D       krool_text_575
 0005:00181E5C       krool_text_576
 0005:00181E6B       krool_text_577
 0005:00181E7C       krool_text_578
 0005:00181E8C       krool_text_579
 0005:00181E9B       krool_text_580
 0005:00181EA6       krool_text_581
 0005:00181EB5       krool_text_582
 0005:00181EC4       krool_text_583
 0005:00181ED2       krool_text_584
 0005:00181EDB       krool_text_585
 0005:00181EEA       krool_text_586
 0005:00181EF8       krool_text_587
 0005:00181F07       krool_text_588
 0005:00181F14       krool_text_589
 0005:00181F24       krool_text_590
 0005:00181F32       krool_text_591
 0005:00181F40       krool_text_592
 0005:00181F4E       krool_text_593
 0005:00181F5D       krool_text_594
 0005:00181F6D       krool_text_595
 0005:00181F7B       krool_text_596
 0005:00181F8A       krool_text_597
 0005:00181F9A       krool_text_598
 0005:00181FAA       krool_text_599
 0005:00181FB7       krool_text_600
 0005:00181FC2       krool_text_601
 0005:00181FC8       krool_text_602
 0005:00181FD7       krool_text_603
 0005:00181FE5       krool_text_604
 0005:00181FF3       krool_text_605
 0005:00181FF7       krool_text_606
 0005:00182006       krool_text_607
 0005:00182014       krool_text_608
 0005:00182023       krool_text_609
 0005:00182032       krool_text_610
 0005:0018203F       krool_text_611
 0005:0018204F       krool_text_612
 0005:0018205D       krool_text_613
 0005:0018206E       krool_text_614
 0005:00182075       krool_text_615
 0005:00182084       krool_text_616
 0005:00182093       krool_text_617
 0005:001820A5       krool_text_618
 0005:001820B1       krool_text_619
 0005:001820C0       krool_text_620
 0005:001820CF       krool_text_621
 0005:001820E0       krool_text_622
 0005:001820ED       krool_text_623
 0005:001820FD       krool_text_624
 0005:0018210B       krool_text_625
 0005:00182116       krool_text_626
 0005:00182123       krool_text_627
 0005:00182132       krool_text_628
 0005:00182143       krool_text_629
 0005:00182152       krool_text_630
 0005:00182161       krool_text_631
 0005:00182170       krool_text_632
 0005:0018217F       krool_text_633
 0005:0018218E       krool_text_634
 0005:0018219C       krool_text_635
 0005:001821AB       krool_text_636
 0005:001821B7       krool_text_637
 0005:001821C3       krool_text_638
 0005:001821CE       krool_text_639
 0005:001821DB       krool_text_640
 0005:001821E7       krool_text_641
 0005:001821F4       krool_text_642
 0005:00182202       krool_text_643
 0005:00182212       krool_text_644
 0005:00182220       krool_text_645
 0005:00182230       krool_text_646
 0005:00182240       krool_text_647
 0005:00182251       krool_text_648
 0005:00182262       krool_text_649
 0005:00182271       krool_text_650
 0005:00182280       krool_text_651
 0005:00182289       krool_text_652
 0005:00182299       krool_text_653
 0005:001822A9       krool_text_654
 0005:001822B8       krool_text_655
 0005:001822C6       krool_text_656
 0005:001822CE       krool_text_657
 0005:001822DE       krool_text_658
 0005:001822EA       krool_text_659
 0005:001822F8       krool_text_660
 0005:00182305       krool_text_661
 0005:00182310       krool_text_662
 0005:0018231E       krool_text_663
 0005:0018232D       krool_text_664
 0005:0018233B       krool_text_665
 0005:0018234B       krool_text_666
 0005:0018235A       krool_text_667
 0005:00182367       krool_text_668
 0005:00182375       krool_text_669
 0005:00182385       krool_text_670
 0005:00182391       krool_text_671
 0005:0018239C       krool_text_672
 0005:001823B0       krool_text_673
 0005:001823C0       krool_text_674
 0005:001823D0       krool_text_675
 0005:001823E0       krool_text_676
 0005:001823ED       krool_text_677
 0005:001823FA       krool_text_678
 0005:00182409       krool_text_679
 0005:0018241A       krool_text_680
 0005:0018242B       krool_text_681
 0005:00182439       krool_text_682
 0005:00182448       krool_text_683
 0005:00182455       krool_text_684
 0005:00182460       krool_text_685
 0005:0018246F       krool_text_686
 0005:0018247E       krool_text_687
 0005:0018248E       krool_text_688
 0005:0018249E       krool_text_689
 0005:001824AD       krool_text_690
 0005:001824BC       krool_text_691
 0005:001824CA       krool_text_692
 0005:001824D8       krool_text_693
 0005:001824E7       krool_text_694
 0005:001824F4       krool_text_695
 0005:00182501       krool_text_696
 0005:0018250E       krool_text_697
 0005:00182519       krool_text_698
 0005:00182529       krool_text_699
 0005:00182538       krool_text_700
 0005:0018254A       krool_text_701
 0005:00182559       krool_text_702
 0005:00182568       krool_text_703
 0005:0018257A       krool_text_704
 0005:00182585       krool_text_705
 0005:00182590       krool_text_706
 0005:0018259F       krool_text_707
 0005:001825AE       krool_text_708
 0005:001825BD       krool_text_709
 0005:001825CD       krool_text_710
 0005:001825DD       krool_text_711
 0005:001825EC       krool_text_712
 0005:001825FC       krool_text_713
 0005:0018260C       krool_text_714
 0005:0018261B       krool_text_715
 0005:00182628       krool_text_716
 0005:00182636       krool_text_717
 0005:00182641       krool_text_718
 0005:0018264E       krool_text_719
 0005:00182659       krool_text_720
 0005:00182664       krool_text_721
 0005:00182671       krool_text_722
 0005:0018267F       krool_text_723
 0005:0018268D       krool_text_724
 0005:0018269C       krool_text_725
 0005:001826A6       krool_text_726
 0005:001826B7       krool_text_727
 0005:001826C7       krool_text_728
 0005:001826D2       krool_text_729
 0005:001826E2       krool_text_730
 0005:001826F2       krool_text_731
 0005:00182701       krool_text_732
 0005:00182710       krool_text_733
 0005:0018271E       krool_text_734
 0005:0018272D       krool_text_735
 0005:00182736       krool_text_736
 0005:00182743       krool_text_737
 0005:00182750       krool_text_738
 0005:00182760       krool_text_739
 0005:0018276A       krool_text_740
 0005:00182774       krool_text_741
 0005:00182784       krool_text_742
 0005:00182790       krool_text_743
 0005:00182795       krool_text_744
 0005:001827A4       krool_text_745
 0005:001827B3       krool_text_746
 0005:001827C1       krool_text_747
 0005:001827CB       krool_text_748
 0005:001827DA       krool_text_749
 0005:001827E6       krool_text_750
 0005:001827F4       krool_text_751
 0005:00182800       krool_text_752
 0005:0018280A       krool_text_753
 0005:00182817       krool_text_754
 0005:00182820       krool_text_755
 0005:0018282C       krool_text_756
 0005:0018283B       krool_text_757
 0005:00182846       krool_text_758
 0005:00182853       krool_text_759
 0005:0018285F       krool_text_760
 0005:0018286D       krool_text_761
 0005:00182877       krool_text_762
 0005:00182884       krool_text_763
 0005:00182891       krool_text_764
 0005:001828A1       krool_text_765
 0005:001828B1       krool_text_766
 0005:001828BD       krool_text_767
 0005:001828CD       krool_text_768
 0005:001828D6       krool_text_769
 0005:001828E2       krool_text_770
 0005:001828E9       krool_text_771
 0005:001828F9       krool_text_772
 0005:00182908       krool_text_773
 0005:00182918       krool_text_774
 0005:00182925       krool_text_775
 0005:00182936       krool_text_776
 0005:00182941       krool_text_777
 0005:00182951       krool_text_778
 0005:0018295D       krool_text_779
 0005:00182965       krool_text_780
 0005:00182975       krool_text_781
 0005:00182981       krool_text_782
 0005:0018298F       krool_text_783
 0005:001829A0       krool_text_784
 0005:001829AC       krool_text_785
 0005:001829AD       krool_text_786
 0005:001829AE       krool_text_787
 0005:001829AF       krool_text_788
 0005:001829B0       krool_text_789
 0005:001829C0       krool_story_info
 0005:001829E8       krool_stages
 0005:00182A8C       krool_fail_stage0_1
 0005:00182A98       krool_fail_stage0_2
 0005:00182AA4       krool_fail_stage0_3
 0005:00182AB0       krool_stage1
 0005:00182AF8       krool_fail_stage1_0
 0005:00182B04       krool_fail_stage1_1
 0005:00182B10       krool_fail_stage1_2
 0005:00182B1C       krool_stage2
 0005:00182B68       krool_fail_stage2_0
 0005:00182B74       krool_fail_stage2_1
 0005:00182B80       krool_fail_stage2_2
 0005:00182B8C       krool_stage3
 0005:00182BD8       krool_fail_stage3_0
 0005:00182BE4       krool_fail_stage3_1
 0005:00182BF0       krool_fail_stage3_2
 0005:00182BFC       krool_end_stage
 0005:00182C64       krool_frames
 0005:00182CA0       krool_palettes
 0005:00182CDC       krool_overlays
 0005:00182DBC       krool_blank_anim
 0005:00182DC8       krool_doors_open_anim
 0005:00182E10       krool_talking_anim
 0005:00182EDC       krool_loc_sprs
 0005:00182EEC       krool_loc_pals
 0005:00182EFC       krool_locations
 0005:00182F04       krool_path
 0005:00182F20       krool_path_len
 0005:00182F24       line_plt
 0005:00182F44       line_frames
 0005:00182F78       line_info_0
 0005:00182F84       line_info_1
 0005:00182F90       line_info_2
 0005:00182F9C       line_char_0
 0005:00182FBC       line_char_1
 0005:00182FDC       line_char_2
 0005:00182FFC       __ptr_sys_read_tilt
 0005:00183000       __ptr_spr_draw
 0005:00183004       __ptr_bg_draw
 0005:00183008       __ptr_obj_process
 0005:0018300C       __ptr_spr_update_vram
 0005:00183010       __ptr_init_big_font
 0005:00183014       __ptr_plot_big_text
 0005:00183018       menu_entries
 0005:00183024       menu_entries_num
 0005:00183028       level_entries
 0005:001830C8       level_index
 0005:00183168       level_entries_num
 0005:0018316C       blend_entries
 0005:0018317C       blend_entries_num
 0005:00183180       __ptr_spr_decompress_sprite
 0005:00183184       __ptr_ram_diff_angle
 0005:00183188       __ptr_ram_atan2
 0005:0018318C       __ptr_ram_divide
 0005:00183190       __ptr_ram_sqrt
 0005:00183194       __ptr_ram_sin
 0005:00183198       __ptr_ram_cos
 0005:0018319C       __ptr_ram_diff_angle_0
 0005:001831A0       start_pan_pts
 0005:0018320C       start_pan_rots
 0005:00183278       __ptr_ram_sin_0
 0005:0018327C       __ptr_ram_cos_0
 0005:00183280       __ptr_ram_diff_angle_1
 0005:00183284       __ptr_ram_atan2_0
 0005:00183288       __ptr_ram_one_over_x
 0005:0018328C       __ptr_ram_sin_1
 0005:00183290       __ptr_ram_cos_1
 0005:00183294       __ptr_ram_sin_2
 0005:00183298       __ptr_ram_cos_2
 0005:0018329C       __ptr_ram_diff_angle_2
 0005:001832A0       __ptr_ram_atan2_1
 0005:001832A4       __ptr_ram_sin_3
 0005:001832A8       __ptr_ram_cos_3
 0005:001832AC       __ptr_ram_diff_angle_3
 0005:001832B0       __ptr_ram_atan2_2
 0005:001832B4       __ptr_ram_diff_angle_4
 0005:001832B8       __ptr_ram_diff_angle_5
 0005:001832BC       __ptr_ram_sin_4
 0005:001832C0       __ptr_ram_cos_4
 0005:001832C4       __ptr_ram_diff_angle_6
 0005:001832C8       __ptr_ram_atan2_3
 0005:001832CC       __ptr_ram_sqrt_0
 0005:001832D0       tab_weapons
 0005:001832EC       tab_character_weapons
 0005:001832FA       tab_chance_weapons
 0005:001832FC       AUDIO_START_DATA_SECTION
 0005:00183300       vgroup0_samplist
 0005:00183374       vgroup1_samplist
 0005:001833CC       vgroup2_samplist
 0005:00183454       vgroup3_samplist
 0005:001834A0       vgroup127_samplist
 0005:00183644       tune_list
 0005:00183660       three_beach_tune_001
 0005:00183674       three_snow_tune_002
 0005:00183688       three_lava_tune_003
 0005:0018369C       three_menu_tune_004
 0005:001836B0       three_bayou_tune_005
 0005:001836C4       three_haunted_tune_006
 0005:001836D8       three_castle_tune_008
 0005:001836EC       vgroup0_vmap
 0005:001837EC       v2_t000_keysplit
 0005:001838EC       v2_t002_keysplit
 0005:001839EC       v2_t003_keysplit
 0005:00183AEC       v2_t005_keysplit
 0005:00183BEC       v2_t006_keysplit
 0005:00183CEC       v2_t007_keysplit
 0005:00183DEC       v2_t008_keysplit
 0005:00183EEC       v2_t013_keysplit
 0005:00183FEC       v2_t014_keysplit
 0005:001840EC       v2_t017_keysplit
 0005:001841EC       v2_t018_keysplit
 0005:001842EC       v2_t019_keysplit
 0005:001843EC       v3_t020_keysplit
 0005:001844EC       v3_t021_keysplit
 0005:001845EC       v3_t024_keysplit
 0005:001846EC       v3_t030_keysplit
 0005:001847EC       v3_t031_keysplit
 0005:001848EC       v1_rhythm_set
 0005:001849EC       vgroup0_p000_inf
 0005:00184A30       vgroup0_p001_inf
 0005:00184A74       vgroup0_p003_inf
 0005:00184AB8       vgroup0_p004_inf
 0005:00184AFC       vgroup0_p006_inf
 0005:00184B40       vgroup0_p007_inf
 0005:00184B84       vgroup0_p008_inf
 0005:00184BC8       vgroup0_p009_inf
 0005:00184C0C       vgroup0_p010_inf
 0005:00184C50       vgroup0_p014_inf
 0005:00184C94       vgroup0_p015_inf
 0005:00184CD8       vgroup0_p016_inf
 0005:00184D1C       vgroup0_p017_inf
 0005:00184D60       vgroup0_p018_inf
 0005:00184DA4       vgroup0_p019_inf
 0005:00184DE8       vgroup0_p023_inf
 0005:00184E2C       vgroup0_p024_inf
 0005:00184E70       vgroup0_p026_inf
 0005:00184EB4       vgroup0_p027_inf
 0005:00184EF8       vgroup0_p028_inf
 0005:00184F3C       vgroup0_p030_inf
 0005:00184F80       vgroup0_p031_inf
 0005:00184FC4       vgroup0_p032_inf
 0005:00185008       vgroup0_p034_inf
 0005:0018504C       vgroup0_p035_inf
 0005:00185090       vgroup0_p040_inf
 0005:001850D4       vgroup0_p041_inf
 0005:00185118       vgroup0_p043_inf
 0005:0018515C       vgroup0_p127_inf
 0005:001851A0       vgroup1_p001_inf
 0005:001851E4       vgroup1_p003_inf
 0005:00185228       vgroup1_p004_inf
 0005:0018526C       vgroup1_p005_inf
 0005:001852B0       vgroup1_p006_inf
 0005:001852F4       vgroup1_p007_inf
 0005:00185338       vgroup1_p008_inf
 0005:0018537C       vgroup1_p009_inf
 0005:001853C0       vgroup1_p010_inf
 0005:00185404       vgroup1_p011_inf
 0005:00185448       vgroup1_p016_inf
 0005:0018548C       vgroup1_p019_inf
 0005:001854D0       vgroup1_p020_inf
 0005:00185514       vgroup1_p022_inf
 0005:00185558       vgroup1_p024_inf
 0005:0018559C       vgroup1_p030_inf
 0005:001855E0       vgroup1_p032_inf
 0005:00185624       vgroup1_p033_inf
 0005:00185668       vgroup1_p045_inf
 0005:001856AC       vgroup1_p046_inf
 0005:001856F0       vgroup1_p061_inf
 0005:00185734       vgroup1_p063_inf
 0005:00185778       vgroup2_p001_inf
 0005:001857BC       vgroup2_p003_inf
 0005:00185800       vgroup2_p013_inf
 0005:00185844       vgroup2_p014_inf
 0005:00185888       vgroup2_p020_inf
 0005:001858CC       vgroup2_p022_inf
 0005:00185910       vgroup2_p024_inf
 0005:00185954       vgroup2_p033_inf
 0005:00185998       vgroup2_p034_inf
 0005:001859DC       vgroup2_p035_inf
 0005:00185A20       vgroup2_p045_inf
 0005:00185A64       vgroup2_p046_inf
 0005:00185AA8       vgroup2_p047_inf
 0005:00185AEC       vgroup2_p052_inf
 0005:00185B30       vgroup2_p054_inf
 0005:00185B74       vgroup2_p056_inf
 0005:00185BB8       vgroup2_p061_inf
 0005:00185BFC       vgroup2_p062_inf
 0005:00185C40       vgroup2_p063_inf
 0005:00185C84       vgroup2_p080_inf
 0005:00185CC8       vgroup2_p081_inf
 0005:00185D0C       vgroup2_p082_inf
 0005:00185D50       vgroup2_p084_inf
 0005:00185D94       vgroup2_p086_inf
 0005:00185DD8       vgroup2_p087_inf
 0005:00185E1C       vgroup2_p106_inf
 0005:00185E60       vgroup2_p107_inf
 0005:00185EA4       vgroup2_p112_inf
 0005:00185EE8       vgroup2_p113_inf
 0005:00185F2C       vgroup2_p114_inf
 0005:00185F70       vgroup2_p115_inf
 0005:00185FB4       vgroup2_p123_inf
 0005:00185FF8       vgroup2_p124_inf
 0005:0018603C       vgroup2_p125_inf
 0005:00186080       vgroup3_p000_inf
 0005:001860C4       vgroup3_p001_inf
 0005:00186108       vgroup3_p002_inf
 0005:0018614C       vgroup3_p003_inf
 0005:00186190       vgroup3_p004_inf
 0005:001861D4       vgroup3_p007_inf
 0005:00186218       vgroup3_p008_inf
 0005:0018625C       vgroup3_p009_inf
 0005:001862A0       vgroup3_p010_inf
 0005:001862E4       vgroup3_p011_inf
 0005:00186328       vgroup3_p027_inf
 0005:0018636C       vgroup3_p029_inf
 0005:001863B0       vgroup3_p054_inf
 0005:001863F4       vgroup3_p055_inf
 0005:00186438       vgroup3_p056_inf
 0005:0018647C       vgroup3_p057_inf
 0005:001864C0       vgroup3_p058_inf
 0005:00186504       vgroup3_p059_inf
 0005:00186548       vgroup3_p060_inf
 0005:0018658C       vgroup127_p000_inf
 0005:001865D0       vgroup127_p001_inf
 0005:00186614       vgroup127_p002_inf
 0005:00186658       vgroup127_p003_inf
 0005:0018669C       vgroup127_p006_inf
 0005:001866E0       vgroup127_p008_inf
 0005:00186724       vgroup127_p009_inf
 0005:00186768       vgroup127_p011_inf
 0005:001867AC       vgroup127_p012_inf
 0005:001867F0       vgroup127_p013_inf
 0005:00186834       vgroup127_p014_inf
 0005:00186878       vgroup127_p016_inf
 0005:001868BC       vgroup127_p017_inf
 0005:00186900       vgroup127_p018_inf
 0005:00186944       vgroup127_p019_inf
 0005:00186988       vgroup127_p021_inf
 0005:001869CC       vgroup127_p022_inf
 0005:00186A10       vgroup127_p024_inf
 0005:00186A54       vgroup127_p025_inf
 0005:00186A98       vgroup127_p028_inf
 0005:00186ADC       vgroup127_p029_inf
 0005:00186B20       vgroup127_p033_inf
 0005:00186B64       vgroup127_p035_inf
 0005:00186BA8       vgroup127_p037_inf
 0005:00186BEC       vgroup127_p038_inf
 0005:00186C30       vgroup127_p040_inf
 0005:00186C74       vgroup127_p042_inf
 0005:00186CB8       vgroup127_p045_inf
 0005:00186CFC       vgroup127_p046_inf
 0005:00186D40       vgroup127_p047_inf
 0005:00186D84       vgroup127_p048_inf
 0005:00186DC8       vgroup127_p050_inf
 0005:00186E0C       vgroup127_p052_inf
 0005:00186E50       vgroup127_p054_inf
 0005:00186E94       vgroup127_p055_inf
 0005:00186ED8       vgroup127_p062_inf
 0005:00186F1C       vgroup127_p063_inf
 0005:00186F60       vgroup127_p064_inf
 0005:00186FA4       vgroup127_p065_inf
 0005:00186FE8       vgroup127_p066_inf
 0005:0018702C       vgroup127_p067_inf
 0005:00187070       vgroup127_p068_inf
 0005:001870B4       vgroup127_p069_inf
 0005:001870F8       vgroup127_p070_inf
 0005:0018713C       vgroup127_p071_inf
 0005:00187180       vgroup127_p072_inf
 0005:001871C4       vgroup127_p073_inf
 0005:00187208       vgroup127_p074_inf
 0005:0018724C       vgroup127_p075_inf
 0005:00187290       vgroup127_p076_inf
 0005:001872D4       vgroup127_p078_inf
 0005:00187318       vgroup127_p079_inf
 0005:0018735C       vgroup127_p080_inf
 0005:001873A0       vgroup127_p081_inf
 0005:001873E4       vgroup127_p082_inf
 0005:00187428       vgroup127_p083_inf
 0005:0018746C       vgroup127_p084_inf
 0005:001874B0       vgroup127_p085_inf
 0005:001874F4       vgroup127_p086_inf
 0005:00187538       vgroup127_p087_inf
 0005:0018757C       vgroup127_p088_inf
 0005:001875C0       vgroup127_p089_inf
 0005:00187604       vgroup127_p090_inf
 0005:00187648       vgroup127_p093_inf
 0005:0018768C       vgroup127_p097_inf
 0005:001876D0       vgroup127_p098_inf
 0005:00187714       vgroup127_p099_inf
 0005:00187758       vgroup127_p100_inf
 0005:0018779C       vgroup127_p101_inf
 0005:001877E0       vgroup127_p102_inf
 0005:00187824       vgroup127_p103_inf
 0005:00187868       vgroup127_p104_inf
 0005:001878AC       vgroup127_p105_inf
 0005:001878F0       vgroup127_p106_inf
 0005:00187934       vgroup127_p107_inf
 0005:00187978       vgroup127_p108_inf
 0005:001879BC       vgroup127_p109_inf
 0005:00187A00       vgroup127_p110_inf
 0005:00187A44       vgroup127_p111_inf
 0005:00187A88       vgroup127_p112_inf
 0005:00187ACC       vgroup127_p113_inf
 0005:00187B10       vgroup127_p114_inf
 0005:00187B54       vgroup127_p115_inf
 0005:00187B98       vgroup127_p116_inf
 0005:00187BDC       vgroup127_p117_inf
 0005:00187C20       vgroup127_p118_inf
 0005:00187C64       vgroup127_p119_inf
 0005:00187CA8       vgroup127_p120_inf
 0005:00187CEC       vgroup127_p121_inf
 0005:00187D30       vgroup127_p122_inf
 0005:00187D74       vgroup127_p123_inf
 0005:00187DB8       vgroup127_p124_inf
 0005:00187DFC       vgroup127_p125_inf
 0005:00187E40       vgroup127_p126_inf
 0005:00187E84       vgroup127_p128_inf
 0005:00187EC8       vgroup127_p129_inf
 0005:00187F0C       vgroup127_p134_inf
 0005:00187F50       vgroup127_p135_inf
 0005:00187F94       vgroup127_p138_inf
 0005:00187FD8       vgroup127_p139_inf
 0005:0018801C       vgroup127_p141_inf
 0005:00188060       vgroup127_p142_inf
 0005:001880A4       vgroup127_p143_inf
 0005:001880E8       vgroup127_p145_inf
 0005:0018812C       vgroup127_p147_inf
 0005:00188170       three_beach_trks
 0005:00188190       three_snow_trks
 0005:001881A8       three_lava_trks
 0005:001881C4       three_menu_trks
 0005:001881E0       three_bayou_trks
 0005:001881F4       three_haunted_trks
 0005:0018820C       three_castle_trks
 0005:00188224       vgroup0_p000_smp
 0005:00189E6B       vgroup0_p010_smp
 0005:0018BF3D       vgroup0_p014_smp
 0005:0018E09F       vgroup0_p015_smp
 0005:0018F1D4       vgroup0_p018_smp
 0005:0019116D       vgroup0_p019_smp
 0005:0019250E       vgroup0_p023_smp
 0005:001926F5       vgroup0_p024_smp
 0005:00192F90       vgroup0_p035_smp
 0005:00193F6C       vgroup0_p043_smp
 0005:00194494       vgroup1_p001_smp
 0005:00194DA5       vgroup1_p003_smp
 0005:00195976       vgroup1_p004_smp
 0005:001960F1       vgroup1_p005_smp
 0005:001968F7       vgroup1_p006_smp
 0005:00197738       vgroup1_p007_smp
 0005:00198456       vgroup1_p008_smp
 0005:00199056       vgroup1_p009_smp
 0005:00199782       vgroup1_p010_smp
 0005:0019A913       vgroup1_p011_smp
 0005:0019C1A7       vgroup1_p016_smp
 0005:0019E8C8       vgroup1_p020_smp
 0005:001A0610       vgroup1_p022_smp
 0005:001A2211       vgroup1_p024_smp
 0005:001A3E52       vgroup1_p030_smp
 0005:001A4FC3       vgroup1_p032_smp
 0005:001A5762       vgroup1_p033_smp
 0005:001A60DA       vgroup1_p045_smp
 0005:001A6596       vgroup1_p046_smp
 0005:001A9896       vgroup1_p061_smp
 0005:001A9EDA       vgroup1_p063_smp
 0005:001AA903       vgroup2_p001_smp
 0005:001AB655       vgroup2_p003_smp
 0005:001AC2E8       vgroup2_p013_smp
 0005:001AC727       vgroup2_p014_smp
 0005:001ACCCD       vgroup2_p020_smp
 0005:001AD54A       vgroup2_p022_smp
 0005:001ADE25       vgroup2_p024_smp
 0005:001AE60F       vgroup2_p033_smp
 0005:001AFFC9       vgroup2_p034_smp
 0005:001B172B       vgroup2_p035_smp
 0005:001B2E5C       vgroup2_p045_smp
 0005:001B34D5       vgroup2_p046_smp
 0005:001B39F8       vgroup2_p047_smp
 0005:001B3DE8       vgroup2_p052_smp
 0005:001B4FEE       vgroup2_p054_smp
 0005:001B609C       vgroup2_p056_smp
 0005:001B6CC5       vgroup2_p061_smp
 0005:001B700B       vgroup2_p062_smp
 0005:001B72FD       vgroup2_p063_smp
 0005:001B74A9       vgroup2_p081_smp
 0005:001B9042       vgroup2_p082_smp
 0005:001BADFC       vgroup2_p084_smp
 0005:001BCAE0       vgroup2_p086_smp
 0005:001BEA49       vgroup2_p087_smp
 0005:001BFB43       vgroup2_p106_smp
 0005:001BFEE6       vgroup2_p107_smp
 0005:001C0481       vgroup2_p112_smp
 0005:001C0AC3       vgroup2_p113_smp
 0005:001C102A       vgroup2_p114_smp
 0005:001C15A2       vgroup2_p115_smp
 0005:001C1A40       vgroup2_p123_smp
 0005:001C2049       vgroup2_p124_smp
 0005:001C294E       vgroup2_p125_smp
 0005:001C2F6B       vgroup3_p000_smp
 0005:001C3D6A       vgroup3_p001_smp
 0005:001C4849       vgroup3_p002_smp
 0005:001C531C       vgroup3_p003_smp
 0005:001C5D83       vgroup3_p004_smp
 0005:001C6617       vgroup3_p007_smp
 0005:001C8639       vgroup3_p008_smp
 0005:001C9D36       vgroup3_p009_smp
 0005:001CACDF       vgroup3_p010_smp
 0005:001CB4A6       vgroup3_p011_smp
 0005:001CBDDC       vgroup3_p027_smp
 0005:001CCD9D       vgroup3_p029_smp
 0005:001CD988       vgroup3_p054_smp
 0005:001CDEE8       vgroup3_p055_smp
 0005:001CE199       vgroup3_p056_smp
 0005:001CE2F2       vgroup3_p057_smp
 0005:001CE407       vgroup3_p058_smp
 0005:001CE4F8       vgroup3_p059_smp
 0005:001D0F21       vgroup3_p060_smp
 0005:001D176A       vgroup127_p000_smp
 0005:001D2CF8       vgroup127_p001_smp
 0005:001D48EA       vgroup127_p002_smp
 0005:001D61CC       vgroup127_p003_smp
 0005:001D8094       vgroup127_p006_smp
 0005:001D8E50       vgroup127_p008_smp
 0005:001DA5AD       vgroup127_p009_smp
 0005:001DAFDD       vgroup127_p011_smp
 0005:001DC145       vgroup127_p012_smp
 0005:001DDF67       vgroup127_p013_smp
 0005:001DEC7B       vgroup127_p014_smp
 0005:001DFCC0       vgroup127_p016_smp
 0005:001E0885       vgroup127_p017_smp
 0005:001E0BAD       vgroup127_p018_smp
 0005:001E1B01       vgroup127_p019_smp
 0005:001E3669       vgroup127_p021_smp
 0005:001E3FEB       vgroup127_p022_smp
 0005:001E5423       vgroup127_p024_smp
 0005:001E644A       vgroup127_p025_smp
 0005:001E75D6       vgroup127_p028_smp
 0005:001E80C0       vgroup127_p029_smp
 0005:001E8EFE       vgroup127_p033_smp
 0005:001EAEF6       vgroup127_p035_smp
 0005:001ED03E       vgroup127_p037_smp
 0005:001EE391       vgroup127_p038_smp
 0005:001EEF69       vgroup127_p040_smp
 0005:001EFD23       vgroup127_p042_smp
 0005:001F16E6       vgroup127_p045_smp
 0005:001F2590       vgroup127_p046_smp
 0005:001F3FB1       vgroup127_p047_smp
 0005:001F659F       vgroup127_p048_smp
 0005:001F7BDD       vgroup127_p050_smp
 0005:001F96EC       vgroup127_p052_smp
 0005:001FB172       vgroup127_p054_smp
 0005:001FC0D3       vgroup127_p055_smp
 0005:001FD928       vgroup127_p062_smp
 0005:002004A4       vgroup127_p063_smp
 0005:002026B4       vgroup127_p064_smp
 0005:002045F2       vgroup127_p065_smp
 0005:00206076       vgroup127_p066_smp
 0005:00208A70       vgroup127_p067_smp
 0005:00209F9D       vgroup127_p068_smp
 0005:0020D986       vgroup127_p069_smp
 0005:0020E49A       vgroup127_p070_smp
 0005:0020EE83       vgroup127_p071_smp
 0005:00210993       vgroup127_p072_smp
 0005:00212871       vgroup127_p073_smp
 0005:002140D0       vgroup127_p074_smp
 0005:00215943       vgroup127_p075_smp
 0005:002177D2       vgroup127_p076_smp
 0005:002184E0       vgroup127_p078_smp
 0005:00218F2F       vgroup127_p079_smp
 0005:0021A2B7       vgroup127_p080_smp
 0005:0021B4C6       vgroup127_p081_smp
 0005:0021EFE8       vgroup127_p082_smp
 0005:002210DF       vgroup127_p083_smp
 0005:00221E01       vgroup127_p084_smp
 0005:00222989       vgroup127_p085_smp
 0005:00223C08       vgroup127_p086_smp
 0005:00224F58       vgroup127_p087_smp
 0005:00226232       vgroup127_p088_smp
 0005:00226DD6       vgroup127_p089_smp
 0005:0022822C       vgroup127_p090_smp
 0005:002296FB       vgroup127_p093_smp
 0005:0022AFCC       vgroup127_p097_smp
 0005:0022C18E       vgroup127_p098_smp
 0005:0022C33F       vgroup127_p099_smp
 0005:0022D1E7       vgroup127_p100_smp
 0005:0022DF14       vgroup127_p101_smp
 0005:0022FFC8       vgroup127_p102_smp
 0005:00230CC1       vgroup127_p103_smp
 0005:002318E8       vgroup127_p104_smp
 0005:00231C43       vgroup127_p105_smp
 0005:00232CAA       vgroup127_p106_smp
 0005:0023325E       vgroup127_p107_smp
 0005:002342EC       vgroup127_p108_smp
 0005:0023488E       vgroup127_p109_smp
 0005:002352A1       vgroup127_p110_smp
 0005:0023624B       vgroup127_p111_smp
 0005:002364FF       vgroup127_p112_smp
 0005:00236639       vgroup127_p113_smp
 0005:00236F2D       vgroup127_p114_smp
 0005:002375CA       vgroup127_p115_smp
 0005:00238691       vgroup127_p116_smp
 0005:00238CCA       vgroup127_p117_smp
 0005:00239074       vgroup127_p118_smp
 0005:002393F4       vgroup127_p119_smp
 0005:0023A5D7       vgroup127_p120_smp
 0005:0023BB19       vgroup127_p121_smp
 0005:0023DC10       vgroup127_p122_smp
 0005:0023F1B4       vgroup127_p123_smp
 0005:0023F533       vgroup127_p124_smp
 0005:0023F7D9       vgroup127_p125_smp
 0005:0023FE65       vgroup127_p126_smp
 0005:00240249       vgroup127_p128_smp
 0005:0024054A       vgroup127_p129_smp
 0005:00241584       vgroup127_p134_smp
 0005:002427DF       vgroup127_p135_smp
 0005:00246208       vgroup127_p138_smp
 0005:002469E5       vgroup127_p139_smp
 0005:00247C1A       vgroup127_p141_smp
 0005:00249E1C       vgroup127_p142_smp
 0005:0024BEEB       vgroup127_p143_smp
 0005:0024DF04       vgroup127_p145_smp
 0005:00250821       vgroup127_p147_smp
 0005:00252C34       three_beach_trk0
 0005:00252C3D       three_beach_trk1
 0005:00253525       three_beach_trk2
 0005:002550B7       three_beach_trk3
 0005:00255CDD       three_beach_trk4
 0005:00256B01       three_beach_trk5
 0005:00257816       three_beach_trk6
 0005:00259543       three_beach_trk7
 0005:0025A77C       three_snow_trk0
 0005:0025A78B       three_snow_trk1
 0005:0025B1B5       three_snow_trk2
 0005:0025C935       three_snow_trk3
 0005:0025D0D6       three_snow_trk4
 0005:0025DF02       three_snow_trk5
 0005:0025F03C       three_lava_trk0
 0005:0025F045       three_lava_trk1
 0005:0025F377       three_lava_trk2
 0005:00260093       three_lava_trk3
 0005:002605AD       three_lava_trk4
 0005:00261908       three_lava_trk5
 0005:00263420       three_lava_trk6
 0005:00264AF0       three_menu_trk0
 0005:00264AFC       three_menu_trk1
 0005:00264F15       three_menu_trk2
 0005:0026576D       three_menu_trk3
 0005:00265F42       three_menu_trk4
 0005:00266F44       three_menu_trk5
 0005:00267456       three_menu_trk6
 0005:0026806C       three_bayou_trk0
 0005:00268075       three_bayou_trk1
 0005:002687DA       three_bayou_trk2
 0005:0026A2CC       three_bayou_trk3
 0005:0026C172       three_bayou_trk4
 0005:0026DF6F       three_haunted_trk0
 0005:0026DF78       three_haunted_trk1
 0005:0026F27E       three_haunted_trk2
 0005:00270195       three_haunted_trk3
 0005:002706F7       three_haunted_trk4
 0005:002711A8       three_haunted_trk5
 0005:002732E6       three_castle_trk0
 0005:002732F2       three_castle_trk1
 0005:00273F12       three_castle_trk2
 0005:002749C5       three_castle_trk3
 0005:00275C10       three_castle_trk4
 0005:00275D9A       three_castle_trk5
 0005:00276AF8       AUDIO_END_DATA_SECTION
 0005:00276AFC       language
 0005:00276B00       asciiMap
 0005:00277000       kernelMap
 0005:00277500       oam_templates
 0005:00277550       oam_unused
 0005:00277558       oam_sizes.6
 0005:00277564       __ptr_ram_sin_5
 0005:00277568       __ptr_ram_cos_5
 0005:0027756C       maps
 0005:00277584       chars
 0005:0027759C       plts
 0005:002775B4       sprite_image_oam
 0005:002775D4       chars_0
 0005:00277698       pals
 0005:0027775C       plts_0
 0005:00277774       maps_0
 0005:0027778C       chars_1
 0005:002777A4       chars_2
 0005:002777C0       pals_0
 0005:002777DC       coin_oam
 0005:002777E4       select_strings
 0005:00277974       select_indices
 0005:00277A94       select_counts
 0005:00277AA8       mode_strings
 0005:00277AD0       difficulty_strings
 0005:00277AE4       difficulty_x
 0005:00277AF8       mode_x
 0005:00277B20       select_x_start
 0005:00277B48       select_x_gap
 0005:00277B5C       select_y_start
 0005:00277B70       select_y_gap
 0005:00277B84       story_planes
 0005:00277B90       sel_char_sounds
 0005:00277B9C       sel_char_sounds2
 0005:00277BA8       __ptr_init_big_font_0
 0005:00277BAC       __ptr_plot_big_text_0
 0005:00277BB0       impure_data
 0005:00277E9C       _impure_ptr
 0005:00277EA0       __mb_cur_max
 0005:00277EA4       lc_ctype.3
 0005:00277EAC       last_lc_ctype.4
 0005:00277EB4       __malloc_av_
 0005:002782BC       __malloc_trim_threshold
 0005:002782C0       __malloc_top_pad
 0005:002782C4       __malloc_sbrk_base
 0005:002782C8       __malloc_max_sbrked_mem
 0005:002782CC       __malloc_max_total_mem
 0005:002782D0       __malloc_current_mallinfo
 0000:00000001 Abs   ON
 0000:00000000 Abs   OFF
 0000:00000001 Abs   ENABLE
 0000:00000000 Abs   DISABLE
 0000:00000001 Abs   TRUE
 0000:000000F0 Abs   LCD_WIDTH
 0000:000000A0 Abs   LCD_HEIGHT
 0000:01000000 Abs   SYSTEM_CLOCK
 0000:000000FF Abs   RESET_ALL_FLAG
 0000:000000E0 Abs   RESET_ALL_REG_FLAG
 0000:00000080 Abs   RESET_REG_FLAG
 0000:00000040 Abs   RESET_REG_SOUND_FLAG
 0000:00000020 Abs   RESET_REG_SIO_FLAG
 0000:0000001F Abs   RESET_ALL_RAM_FLAG
 0000:00000001 Abs   RESET_EX_WRAM_FLAG
 0000:00000002 Abs   RESET_CPU_WRAM_FLAG
 0000:00000004 Abs   RESET_PLTT_FLAG
 0000:00000008 Abs   RESET_VRAM_FLAG
 0000:00000010 Abs   RESET_OAM_FLAG
 0000:000003FF Abs   BG_SC_CHAR_NO_MASK
 0000:00000C00 Abs   BG_SC_FLIP_MASK
 0000:0000F000 Abs   BG_SC_PLTT_MASK
 0000:00000000 Abs   BG_SC_CHAR_NO_SHIFT
 0000:0000000A Abs   BG_SC_FLIP_SHIFT
 0000:0000000C Abs   BG_SC_PLTT_SHIFT
 0000:00000400 Abs   BG_SC_H_FLIP
 0000:00000800 Abs   BG_SC_V_FLIP
 0000:0000000E Abs   SIN_SHIFT
 0000:00000008 Abs   AFFINE_DIV_SHIFT
 0000:00000008 Abs   AFFINE_REG_SHIFT
 0000:0000000E Abs   AFFINE_CAL_SHIFT
 0000:000000FF Abs   OAM_V_POS_MASK
 0000:01FF0000 Abs   OAM_H_POS_MASK
 0000:0000C000 Abs   OAM_SHAPE_MASK
 0000:C0000000 Abs   OAM_SIZE_MASK
 0000:00000C00 Abs   OAM_OBJ_MODE_MASK
 0000:00000300 Abs   OAM_AFFINE_MODE_MASK
 0000:3E000000 Abs   OAM_AFFINE_NO_MASK
 0000:30000000 Abs   OAM_FLIP_MASK
 0000:000003FF Abs   OAM_CHAR_NO_MASK
 0000:00000C00 Abs   OAM_PRIORITY_MASK
 0000:0000F000 Abs   OAM_PLTT_MASK
 0000:FFFF0000 Abs   OAM_AFFINE_PARAM_MASK
 0000:00000000 Abs   OAM_V_POS_SHIFT
 0000:00000010 Abs   OAM_H_POS_SHIFT
 0000:0000000E Abs   OAM_SHAPE_SHIFT
 0000:0000001E Abs   OAM_SIZE_SHIFT
 0000:00000008 Abs   OAM_AFFINE_MODE_SHIFT
 0000:0000000A Abs   OAM_OBJ_MODE_SHIFT
 0000:00000019 Abs   OAM_AFFINE_NO_SHIFT
 0000:0000001C Abs   OAM_FLIP_SHIFT
 0000:00000000 Abs   OAM_CHAR_NO_SHIFT
 0000:0000000A Abs   OAM_PRIORITY_SHIFT
 0000:0000000C Abs   OAM_PLTT_SHIFT
 0000:00000010 Abs   OAM_AFFINE_PARAM_SHIFT
 0000:00000000 Abs   OAM_OBJ_ON
 0000:00000200 Abs   OAM_OBJ_OFF
 0000:00000000 Abs   OAM_OBJ_NORMAL
 0000:00000400 Abs   OAM_OBJ_BLEND
 0000:00000800 Abs   OAM_OBJ_WINDOW
 0000:00000000 Abs   OAM_AFFINE_NONE
 0000:00000100 Abs   OAM_AFFINE_NORMAL
 0000:00000300 Abs   OAM_AFFINE_TWICE
 0000:00000200 Abs   OAM_AFFINE_ERASE
 0000:00001000 Abs   OAM_MOS_ON
 0000:00000000 Abs   OAM_MOS_OFF
 0000:00000000 Abs   OAM_COLOR_16
 0000:00002000 Abs   OAM_COLOR_256
 0000:10000000 Abs   OAM_H_FLIP
 0000:20000000 Abs   OAM_V_FLIP
 0000:00000000 Abs   OAM_SQUARE
 0000:00004000 Abs   OAM_H_RECTANGLE
 0000:00008000 Abs   OAM_V_RECTANGLE
 0000:00000000 Abs   OAM_SIZE_NO_0
 0000:40000000 Abs   OAM_SIZE_NO_1
 0000:80000000 Abs   OAM_SIZE_NO_2
 0000:C0000000 Abs   OAM_SIZE_NO_3
 0000:00000000 Abs   OAM_SIZE_8x8
 0000:40000000 Abs   OAM_SIZE_16x16
 0000:80000000 Abs   OAM_SIZE_32x32
 0000:C0000000 Abs   OAM_SIZE_64x64
 0000:00004000 Abs   OAM_SIZE_16x8
 0000:40004000 Abs   OAM_SIZE_32x8
 0000:80004000 Abs   OAM_SIZE_32x16
 0000:C0004000 Abs   OAM_SIZE_64x32
 0000:00008000 Abs   OAM_SIZE_8x16
 0000:40008000 Abs   OAM_SIZE_8x32
 0000:80008000 Abs   OAM_SIZE_16x32
 0000:C0008000 Abs   OAM_SIZE_32x64
 0000:0000001F Abs   PLTT_RED_MASK
 0000:000003E0 Abs   PLTT_GREEN_MASK
 0000:00007C00 Abs   PLTT_BLUE_MASK
 0000:00000000 Abs   PLTT_RED_SHIFT
 0000:00000005 Abs   PLTT_GREEN_SHIFT
 0000:0000000A Abs   PLTT_BLUE_SHIFT
 0000:0000001F Abs   PSR_CPU_MODE_MASK
 0000:00000010 Abs   PSR_USER_MODE
 0000:00000011 Abs   PSR_FIQ_MODE
 0000:00000012 Abs   PSR_IRQ_MODE
 0000:00000013 Abs   PSR_SVC_MODE
 0000:00000017 Abs   PSR_ABORT_MODE
 0000:0000001B Abs   PSR_UNDEF_MODE
 0000:0000001F Abs   PSR_SYS_MODE
 0000:00000020 Abs   PSR_THUMB_STATE
 0000:00000040 Abs   PSR_FIQ_DISABLE
 0000:00000080 Abs   PSR_IRQ_DISABLE
 0000:000000C0 Abs   PSR_IRQ_FIQ_DISABLE
 0000:10000000 Abs   PSR_V_FLAG
 0000:20000000 Abs   PSR_C_FLAG
 0000:40000000 Abs   PSR_Z_FLAG
 0000:80000000 Abs   PSR_N_FLAG
 0000:00000001 Abs   V_BLANK_INTR_FLAG
 0000:00000002 Abs   H_BLANK_INTR_FLAG
 0000:00000004 Abs   V_COUNT_INTR_FLAG
 0000:00000008 Abs   TIMER0_INTR_FLAG
 0000:00000010 Abs   TIMER1_INTR_FLAG
 0000:00000020 Abs   TIMER2_INTR_FLAG
 0000:00000040 Abs   TIMER3_INTR_FLAG
 0000:00000080 Abs   SIO_INTR_FLAG
 0000:00000100 Abs   DMA0_INTR_FLAG
 0000:00000200 Abs   DMA1_INTR_FLAG
 0000:00000400 Abs   DMA2_INTR_FLAG
 0000:00000800 Abs   DMA3_INTR_FLAG
 0000:00001000 Abs   KEY_INTR_FLAG
 0000:00002000 Abs   CASSETTE_INTR_FLAG
 0000:00000007 Abs   DISP_BG_MODE_MASK
 0000:00001F00 Abs   DISP_ON_MASK
 0000:00006000 Abs   DISP_WIN_MASK
 0000:00000000 Abs   DISP_BG_MODE_SHIFT
 0000:00000008 Abs   DISP_ON_SHIFT
 0000:0000000D Abs   DISP_WIN_SHIFT
 0000:00000000 Abs   DISP_MODE_0
 0000:00000001 Abs   DISP_MODE_1
 0000:00000002 Abs   DISP_MODE_2
 0000:00000003 Abs   DISP_MODE_3
 0000:00000004 Abs   DISP_MODE_4
 0000:00000005 Abs   DISP_MODE_5
 0000:00000010 Abs   DISP_BMP_FRAME_NO
 0000:00000020 Abs   DISP_OBJ_HOFF
 0000:00000000 Abs   DISP_OBJ_CHAR_2D_MAP
 0000:00000040 Abs   DISP_OBJ_CHAR_1D_MAP
 0000:00000080 Abs   DISP_LCDC_OFF
 0000:00000100 Abs   DISP_BG0_ON
 0000:00000200 Abs   DISP_BG1_ON
 0000:00000400 Abs   DISP_BG2_ON
 0000:00000800 Abs   DISP_BG3_ON
 0000:00000F00 Abs   DISP_BG_ALL_ON
 0000:00001000 Abs   DISP_OBJ_ON
 0000:00001F00 Abs   DISP_OBJ_BG_ALL_ON
 0000:00002000 Abs   DISP_WIN0_ON
 0000:00004000 Abs   DISP_WIN1_ON
 0000:00006000 Abs   DISP_WIN01_ON
 0000:00008000 Abs   DISP_OBJWIN_ON
 0000:0000E000 Abs   DISP_WIN_ALL_ON
 0000:00007F00 Abs   DISP_ALL_ON
 0000:0000FF00 Abs   STAT_VCOUNT_CMP_MASK
 0000:00000008 Abs   STAT_VCOUNT_CMP_SHIFT
 0000:00000001 Abs   STAT_V_BLANK
 0000:00000002 Abs   STAT_H_BLANK
 0000:00000004 Abs   STAT_V_COUNT
 0000:00000008 Abs   STAT_V_BLANK_IF_ENABLE
 0000:00000010 Abs   STAT_H_BLANK_IF_ENABLE
 0000:00000020 Abs   STAT_V_COUNT_IF_ENABLE
 0000:00000003 Abs   BG_PRIORITY_MASK
 0000:0000000C Abs   BG_CHAR_BASE_MASK
 0000:00001F00 Abs   BG_SCREEN_BASE_MASK
 0000:0000C000 Abs   BG_SCREEN_SIZE_MASK
 0000:00000000 Abs   BG_PRIORITY_SHIFT
 0000:00000002 Abs   BG_CHAR_BASE_SHIFT
 0000:00000008 Abs   BG_SCREEN_BASE_SHIFT
 0000:0000000E Abs   BG_SCREEN_SIZE_SHIFT
 0000:00000000 Abs   BG_PRIORITY_0
 0000:00000001 Abs   BG_PRIORITY_1
 0000:00000002 Abs   BG_PRIORITY_2
 0000:00000003 Abs   BG_PRIORITY_3
 0000:00000040 Abs   BG_MOS_ON
 0000:00000000 Abs   BG_MOS_OFF
 0000:00000000 Abs   BG_COLOR_16
 0000:00000080 Abs   BG_COLOR_256
 0000:00002000 Abs   BG_LOOP_ON
 0000:00000000 Abs   BG_LOOP_OFF
 0000:00000000 Abs   BG_SCREEN_SIZE_0
 0000:00004000 Abs   BG_SCREEN_SIZE_1
 0000:00008000 Abs   BG_SCREEN_SIZE_2
 0000:0000C000 Abs   BG_SCREEN_SIZE_3
 0000:000000FF Abs   WIN_END_POS_MASK
 0000:0000FF00 Abs   WIN_START_POS_MASK
 0000:00000000 Abs   WIN_END_POS_SHIFT
 0000:00000008 Abs   WIN_START_POS_SHIFT
 0000:00000001 Abs   WIN_BG0_ON
 0000:00000002 Abs   WIN_BG1_ON
 0000:00000004 Abs   WIN_BG2_ON
 0000:00000008 Abs   WIN_BG3_ON
 0000:00000010 Abs   WIN_OBJ_ON
 0000:00000020 Abs   WIN_BLEND_ON
 0000:0000003F Abs   WIN_ALL_ON
 0000:0000000F Abs   MOS_H_SIZE_MASK
 0000:000000F0 Abs   MOS_V_SIZE_MASK
 0000:0000000F Abs   MOS_BG_H_SIZE_MASK
 0000:000000F0 Abs   MOS_BG_V_SIZE_MASK
 0000:0000000F Abs   MOS_OBJ_H_SIZE_MASK
 0000:000000F0 Abs   MOS_OBJ_V_SIZE_MASK
 0000:00000000 Abs   MOS_H_SIZE_SHIFT
 0000:00000004 Abs   MOS_V_SIZE_SHIFT
 0000:00000000 Abs   MOS_BG_H_SIZE_SHIFT
 0000:00000004 Abs   MOS_BG_V_SIZE_SHIFT
 0000:00000008 Abs   MOS_OBJ_H_SIZE_SHIFT
 0000:0000000C Abs   MOS_OBJ_V_SIZE_SHIFT
 0000:0000003F Abs   BLD_PIXEL_MASK
 0000:0000003F Abs   BLD_1ST_PIXEL_MASK
 0000:000000C0 Abs   BLD_MODE_MASK
 0000:00003F00 Abs   BLD_2ND_PIXEL_MASK
 0000:00000000 Abs   BLD_1ST_PIXEL_SHIFT
 0000:00000006 Abs   BLD_MODE_SHIFT
 0000:00000008 Abs   BLD_2ND_PIXEL_SHIFT
 0000:00000001 Abs   BLD_BG0
 0000:00000002 Abs   BLD_BG1
 0000:00000004 Abs   BLD_BG2
 0000:00000008 Abs   BLD_BG3
 0000:00000010 Abs   BLD_OBJ
 0000:00000020 Abs   BLD_BD
 0000:0000003F Abs   BLD_ALL
 0000:00000001 Abs   BLD_BG0_1ST
 0000:00000002 Abs   BLD_BG1_1ST
 0000:00000004 Abs   BLD_BG2_1ST
 0000:00000008 Abs   BLD_BG3_1ST
 0000:00000010 Abs   BLD_OBJ_1ST
 0000:00000020 Abs   BLD_BD_1ST
 0000:0000003F Abs   BLD_1ST_ALL
 0000:00000000 Abs   BLD_NORMAL_MODE
 0000:00000040 Abs   BLD_A_BLEND_MODE
 0000:00000080 Abs   BLD_UP_MODE
 0000:000000C0 Abs   BLD_DOWN_MODE
 0000:00000100 Abs   BLD_BG0_2ND
 0000:00000200 Abs   BLD_BG1_2ND
 0000:00000400 Abs   BLD_BG2_2ND
 0000:00000800 Abs   BLD_BG3_2ND
 0000:00001000 Abs   BLD_OBJ_2ND
 0000:00002000 Abs   BLD_BD_2ND
 0000:00003F00 Abs   BLD_2ND_ALL
 0000:0000001F Abs   BLD_A_MASK
 0000:00001F00 Abs   BLD_B_MASK
 0000:0000001F Abs   BLD_Y_MASK
 0000:00000010 Abs   BLD_A_SHIFT
 0000:00000018 Abs   BLD_B_SHIFT
 0000:00000000 Abs   BLD_Y_SHIFT
 0000:00000003 Abs   SOUND_SO1_LEVEL_MASK
 0000:00000030 Abs   SOUND_SO2_LEVEL_MASK
 0000:0000000F Abs   SOUND_DMG_SO1_ON_MASK
 0000:000000F0 Abs   SOUND_DMG_SO2_ON_MASK
 0000:00000003 Abs   SOUND_SWEEP_SHIFT_MASK
 0000:00000030 Abs   SOUND_SWEEP_TIME_MASK
 0000:0000003F Abs   SOUND_COUNTS_MASK
 0000:000000C0 Abs   SOUND_DUTY_MASK
 0000:00000003 Abs   SOUND_ENV_STEPS_MASK
 0000:000000F0 Abs   SOUND_ENV_INIT_MASK
 0000:000003FF Abs   SOUND_FREQUENCY_MASK
 0000:000000FF Abs   SOUND_FREQUENCY_L_MASK
 0000:00000003 Abs   SOUND_FREQUENCY_H_MASK
 0000:000000FF Abs   SOUND_3_COUNTS_MASK
 0000:000000E0 Abs   SOUND_3_LEVEL_MASK
 0000:00000003 Abs   SOUND_4_PRESCALER_MASK
 0000:000000F0 Abs   SOUND_4_POLYSHIFT_MASK
 0000:00000000 Abs   SOUND_SO1_LEVEL_SHIFT
 0000:00000004 Abs   SOUND_SO2_LEVEL_SHIFT
 0000:00000000 Abs   SOUND_DMG_SO1_ON_SHIFT
 0000:00000004 Abs   SOUND_DMG_SO2_ON_SHIFT
 0000:00000000 Abs   SOUND_SWEEP_SHIFT_SHIFT
 0000:00000004 Abs   SOUND_SWEEP_TIME_SHIFT
 0000:00000000 Abs   SOUND_COUNTS_SHIFT
 0000:00000006 Abs   SOUND_DUTY_SHIFT
 0000:00000000 Abs   SOUND_ENV_STEPS_SHIFT
 0000:00000004 Abs   SOUND_ENV_INIT_SHIFT
 0000:00000000 Abs   SOUND_FREQUENCY_SHIFT
 0000:00000000 Abs   SOUND_FREQUENCY_L_SHIFT
 0000:00000008 Abs   SOUND_FREQUENCY_H_SHIFT
 0000:00000000 Abs   SOUND_3_COUNTS_SHIFT
 0000:00000005 Abs   SOUND_3_LEVEL_SHIFT
 0000:00000000 Abs   SOUND_4_PRESCALER_SHIFT
 0000:00000004 Abs   SOUND_4_POLYSHIFT_SHIFT
 0000:00000001 Abs   SOUND_1_ON
 0000:00000002 Abs   SOUND_2_ON
 0000:00000004 Abs   SOUND_3_ON
 0000:00000008 Abs   SOUND_4_ON
 0000:00000080 Abs   SOUND_DMG_ON
 0000:00000001 Abs   SOUND_1_SO1_ON
 0000:00000002 Abs   SOUND_2_SO1_ON
 0000:00000004 Abs   SOUND_3_SO1_ON
 0000:00000008 Abs   SOUND_4_SO1_ON
 0000:00000010 Abs   SOUND_1_SO2_ON
 0000:00000020 Abs   SOUND_2_SO2_ON
 0000:00000040 Abs   SOUND_3_SO2_ON
 0000:00000080 Abs   SOUND_4_SO2_ON
 0000:0000000F Abs   SOUND_DMG_ALL_SO1_ON
 0000:000000F0 Abs   SOUND_DMG_ALL_SO2_ON
 0000:000000FF Abs   SOUND_DMG_ALL_SO_ON
 0000:00000080 Abs   SOUND_VIN_SO1_ON
 0000:00000008 Abs   SOUND_VIN_SO2_ON
 0000:00000008 Abs   SOUND_VIN_SO_ON
 0000:00000001 Abs   SOUND_A_SO1_ON
 0000:00000002 Abs   SOUND_A_SO2_ON
 0000:00000010 Abs   SOUND_B_SO1_ON
 0000:00000020 Abs   SOUND_B_SO2_ON
 0000:00000003 Abs   SOUND_A_ALL_SO_ON
 0000:00000030 Abs   SOUND_B_ALL_SO_ON
 0000:00000011 Abs   SOUND_DIRECT_ALL_SO1_ON
 0000:00000022 Abs   SOUND_DIRECT_ALL_SO2_ON
 0000:00000033 Abs   SOUND_DIRECT_ALL_SO_ON
 0000:00000000 Abs   SOUND_A_TIMER_0
 0000:00000004 Abs   SOUND_A_TIMER_1
 0000:00000000 Abs   SOUND_B_TIMER_0
 0000:00000040 Abs   SOUND_B_TIMER_1
 0000:00000008 Abs   SOUND_A_FIFO_RESET
 0000:00000080 Abs   SOUND_B_FIFO_RESET
 0000:00000000 Abs   SOUND_DMG_MIX_1_4
 0000:00000001 Abs   SOUND_DMG_MIX_2_4
 0000:00000002 Abs   SOUND_DMG_MIX_FULL
 0000:00000000 Abs   SOUND_A_MIX_1_2
 0000:00000004 Abs   SOUND_A_MIX_FULL
 0000:00000000 Abs   SOUND_B_MIX_1_2
 0000:00000008 Abs   SOUND_B_MIX_FULL
 0000:0000000E Abs   SOUND_ALL_MIX_FULL
 0000:00000080 Abs   SOUND_INIT_ON
 0000:00000000 Abs   SOUND_INIT_OFF
 0000:00000040 Abs   SOUND_COUNTER_ON
 0000:00000000 Abs   SOUND_COUNTER_OFF
 0000:00000000 Abs   SOUND_SWEEP_UP
 0000:00000008 Abs   SOUND_SWEEP_DOWN
 0000:00000000 Abs   SOUND_DUTY_1_8
 0000:00000040 Abs   SOUND_DUTY_2_8
 0000:00000080 Abs   SOUND_DUTY_4_8
 0000:000000C0 Abs   SOUND_DUTY_6_8
 0000:00000008 Abs   SOUND_ENV_UP
 0000:00000000 Abs   SOUND_ENV_DOWN
 0000:00000080 Abs   SOUND_3_LOCAL_ON
 0000:00000000 Abs   SOUND_3_WAVE_BANK_0
 0000:00000040 Abs   SOUND_3_WAVE_BANK_1
 0000:00000020 Abs   SOUND_3_WAVE_CONNECT
 0000:00000000 Abs   SOUND_3_WAVE_DISCONNECT
 0000:00000000 Abs   SOUND_3_LEVEL_0_4
 0000:00000020 Abs   SOUND_3_LEVEL_FULL
 0000:00000040 Abs   SOUND_3_LEVEL_2_4
 0000:00000060 Abs   SOUND_3_LEVEL_1_4
 0000:00000080 Abs   SOUND_3_LEVEL_3_4
 0000:00000000 Abs   SOUND_4_POLYSTEP_15
 0000:00000008 Abs   SOUND_4_POLYSTEP_7
 0000:00003000 Abs   SIO_MODE_MASK
 0000:00000003 Abs   SIO_BAUD_RATE_MASK
 0000:00000030 Abs   SIO_ID_NO_MASK
 0000:0000000C Abs   SIO_MODE_SHIFT
 0000:00000000 Abs   SIO_BAUD_RATE_SHIFT
 0000:00000004 Abs   SIO_ID_NO_SHIFT
 0000:00000000 Abs   SIO_8BIT_MODE
 0000:00001000 Abs   SIO_32BIT_MODE
 0000:00002000 Abs   SIO_MULTI_MODE
 0000:00003000 Abs   SIO_UART_MODE
 0000:00000000 Abs   SIO_SCK_OUT
 0000:00000001 Abs   SIO_SCK_IN
 0000:00000000 Abs   SIO_IN_SCK_256K
 0000:00000002 Abs   SIO_IN_SCK_2M
 0000:00000004 Abs   SIO_ACK_RECV
 0000:00000008 Abs   SIO_ACK_SEND
 0000:00000000 Abs   SIO_9600_BPS
 0000:00000001 Abs   SIO_38400_BPS
 0000:00000002 Abs   SIO_57600_BPS
 0000:00000003 Abs   SIO_115200_BPS
 0000:00000004 Abs   SIO_MULTI_CONNECT
 0000:00000000 Abs   SIO_MULTI_DISCONNECT
 0000:00000008 Abs   SIO_MULTI_PARENT
 0000:00000000 Abs   SIO_MULTI_CHILD
 0000:00000004 Abs   SIO_MULTI_SI
 0000:00000008 Abs   SIO_MULTI_SD
 0000:00000080 Abs   SIO_MULTI_BUSY
 0000:00000004 Abs   SIO_CTS_ENABLE
 0000:00000000 Abs   SIO_UART_7BIT
 0000:00000080 Abs   SIO_UART_8BIT
 0000:00000040 Abs   SIO_ERROR
 0000:00000080 Abs   SIO_START
 0000:00000080 Abs   SIO_ENABLE
 0000:00000100 Abs   SIO_FIFO_ENABLE
 0000:00000200 Abs   SIO_PARITY_ENABLE
 0000:00000000 Abs   SIO_PARITY_EVEN
 0000:00000008 Abs   SIO_PARITY_ODD
 0000:00000400 Abs   SIO_TRANS_ENABLE
 0000:00000010 Abs   SIO_TRANS_DATA_FULL
 0000:00000800 Abs   SIO_RECV_ENABLE
 0000:00000020 Abs   SIO_RECV_DATA_EMPTY
 0000:00004000 Abs   SIO_IF_ENABLE
 0000:00000001 Abs   JOY_IF_RESET
 0000:00000002 Abs   JOY_IF_RECV
 0000:00000004 Abs   JOY_IF_SEND
 0000:00000040 Abs   JOY_IF_ENABLE
 0000:00000030 Abs   JSTAT_FLAGS_MASK
 0000:00000004 Abs   JSTAT_FLAGS_SHIFT
 0000:00000002 Abs   JSTAT_RECV
 0000:00000008 Abs   JSTAT_SEND
 0000:0000C000 Abs   R_SIO_MODE_MASTER_MASK
 0000:0000000E Abs   R_SIO_MODE_MASTER_SHIFT
 0000:00000000 Abs   R_SIO_MASTER_MODE
 0000:00008000 Abs   R_DIRECT_MODE
 0000:0000C000 Abs   R_JOY_MODE
 0000:00000001 Abs   R_SC
 0000:00000002 Abs   R_SD
 0000:00000004 Abs   R_SI
 0000:00000008 Abs   R_SO
 0000:00000010 Abs   R_SC_I_O
 0000:00000020 Abs   R_SD_I_O
 0000:00000040 Abs   R_SI_I_O
 0000:00000080 Abs   R_SO_I_O
 0000:00000000 Abs   R_SC_IN
 0000:00000000 Abs   R_SD_IN
 0000:00000000 Abs   R_SI_IN
 0000:00000000 Abs   R_SO_IN
 0000:00000010 Abs   R_SC_OUT
 0000:00000020 Abs   R_SD_OUT
 0000:00000040 Abs   R_SI_OUT
 0000:00000080 Abs   R_SO_OUT
 0000:00000100 Abs   R_IF_ENABLE
 0000:30000000 Abs   DMA_TIMMING_MASK
 0000:0000FFFF Abs   DMA_COUNT_MASK
 0000:0000001E Abs   DMA_TIMMING_SHIFT
 0000:00000000 Abs   DMA_COUNT_SHIFT
 0000:80000000 Abs   DMA_ENABLE
 0000:40000000 Abs   DMA_IF_ENABLE
 0000:00000000 Abs   DMA_TIMMING_IMM
 0000:10000000 Abs   DMA_TIMMING_V_BLANK
 0000:20000000 Abs   DMA_TIMMING_H_BLANK
 0000:30000000 Abs   DMA_TIMMING_DISP
 0000:30000000 Abs   DMA_TIMMING_SOUND
 0000:08000000 Abs   DMA_DREQ_ON
 0000:00000000 Abs   DMA_16BIT_BUS
 0000:04000000 Abs   DMA_32BIT_BUS
 0000:02000000 Abs   DMA_CONTINUOUS_ON
 0000:00000000 Abs   DMA_SRC_INC
 0000:00800000 Abs   DMA_SRC_DEC
 0000:01000000 Abs   DMA_SRC_FIX
 0000:00000000 Abs   DMA_DEST_INC
 0000:00200000 Abs   DMA_DEST_DEC
 0000:00400000 Abs   DMA_DEST_FIX
 0000:00600000 Abs   DMA_DEST_RELOAD
 0000:00030000 Abs   TMR_PRESCALER_MASK
 0000:00000010 Abs   TMR_PRESCALER_SHIFT
 0000:00000000 Abs   TMR_PRESCALER_1CK
 0000:00010000 Abs   TMR_PRESCALER_64CK
 0000:00020000 Abs   TMR_PRESCALER_256CK
 0000:00030000 Abs   TMR_PRESCALER_1024CK
 0000:00400000 Abs   TMR_IF_ENABLE
 0000:00800000 Abs   TMR_ENABLE
 0000:0000030F Abs   BUTTON_MASK
 0000:000000F0 Abs   PLUS_KEY_MASK
 0000:000003FF Abs   ALL_KEY_MASK
 0000:00000001 Abs   A_BUTTON
 0000:00000002 Abs   B_BUTTON
 0000:00000004 Abs   SELECT_BUTTON
 0000:00000008 Abs   START_BUTTON
 0000:00000010 Abs   R_KEY
 0000:00000020 Abs   L_KEY
 0000:00000040 Abs   U_KEY
 0000:00000080 Abs   D_KEY
 0000:00000100 Abs   R_BUTTON
 0000:00000200 Abs   L_BUTTON
 0000:00004000 Abs   KEY_IF_ENABLE
 0000:00000000 Abs   KEY_OR_INTR
 0000:00008000 Abs   KEY_AND_INTR
 0000:00000000 Abs   CST_SRAM_4WAIT
 0000:00000001 Abs   CST_SRAM_3WAIT
 0000:00000002 Abs   CST_SRAM_2WAIT
 0000:00000003 Abs   CST_SRAM_8WAIT
 0000:00000000 Abs   CST_ROM0_1ST_4WAIT
 0000:00000004 Abs   CST_ROM0_1ST_3WAIT
 0000:00000008 Abs   CST_ROM0_1ST_2WAIT
 0000:0000000C Abs   CST_ROM0_1ST_8WAIT
 0000:00000000 Abs   CST_ROM0_2ND_2WAIT
 0000:00000010 Abs   CST_ROM0_2ND_1WAIT
 0000:00000000 Abs   CST_ROM1_1ST_4WAIT
 0000:00000020 Abs   CST_ROM1_1ST_3WAIT
 0000:00000040 Abs   CST_ROM1_1ST_2WAIT
 0000:00000060 Abs   CST_ROM1_1ST_8WAIT
 0000:00000000 Abs   CST_ROM1_2ND_4WAIT
 0000:00000080 Abs   CST_ROM1_2ND_1WAIT
 0000:00000000 Abs   CST_ROM2_1ST_4WAIT
 0000:00000100 Abs   CST_ROM2_1ST_3WAIT
 0000:00000200 Abs   CST_ROM2_1ST_2WAIT
 0000:00000300 Abs   CST_ROM2_1ST_8WAIT
 0000:00000000 Abs   CST_ROM2_2ND_8WAIT
 0000:00000400 Abs   CST_ROM2_2ND_1WAIT
 0000:00000000 Abs   CST_PHI_OUT_NONE
 0000:00000800 Abs   CST_PHI_OUT_4MCK
 0000:00001000 Abs   CST_PHI_OUT_8MCK
 0000:00001800 Abs   CST_PHI_OUT_16MCK
 0000:00004000 Abs   CST_PREFETCH_ENABLE
 0000:00000000 Abs   CST_AGB
 0000:00008000 Abs   CST_CGB
 0000:00000000 Abs   BOOT_ROM
 0000:00004000 Abs   BOOT_ROM_END
 0000:02000000 Abs   EX_WRAM
 0000:02040000 Abs   EX_WRAM_END
 0000:03000000 Abs   CPU_WRAM
 0000:03008000 Abs   CPU_WRAM_END
 0000:02000000 Abs   WRAM
 0000:03008000 Abs   WRAM_END
 0000:03007FF0 Abs   SOUND_AREA_ADDR_BUF
 0000:03007FF8 Abs   INTR_CHECK_BUF
 0000:03007FFA Abs   SOFT_RESET_DIRECT_BUF
 0000:03007FFC Abs   INTR_VECTOR_BUF
 0000:04000000 Abs   REG_BASE
 0000:04000300 Abs   REG_END
 0000:05000000 Abs   PLTT
 0000:05000400 Abs   PLTT_END
 0000:05000000 Abs   BG_PLTT
 0000:05000200 Abs   BG_PLTT_END
 0000:05000200 Abs   OBJ_PLTT
 0000:05000400 Abs   OBJ_PLTT_END
 0000:06000000 Abs   VRAM
 0000:06018000 Abs   VRAM_END
 0000:06000000 Abs   BG_VRAM
 0000:06000000 Abs   BG_BITMAP0_VRAM
 0000:0600A000 Abs   BG_BITMAP1_VRAM
 0000:06010000 Abs   OBJ_MODE0_VRAM
 0000:06010000 Abs   OBJ_MODE1_VRAM
 0000:06010000 Abs   OBJ_MODE2_VRAM
 0000:06014000 Abs   OBJ_MODE3_VRAM
 0000:06014000 Abs   OBJ_MODE4_VRAM
 0000:06014000 Abs   OBJ_MODE5_VRAM
 0000:06018000 Abs   OBJ_VRAM_END
 0000:07000000 Abs   OAM
 0000:07000400 Abs   OAM_END
 0000:08000000 Abs   ROM_BANK0
 0000:0A000000 Abs   ROM_BANK0_END
 0000:0A000000 Abs   ROM_BANK1
 0000:0C000000 Abs   ROM_BANK1_END
 0000:0C000000 Abs   ROM_BANK2
 0000:0E000000 Abs   ROM_BANK2_END
 0000:0C000000 Abs   RAM_BANK
 0000:10000000 Abs   RAM_BANK_END
 0000:09FE0000 Abs   FLASH_1M
 0000:0A000000 Abs   FLASH_1M_END
 0000:00004000 Abs   BOOT_ROM_SIZE
 0000:00040000 Abs   EX_WRAM_SIZE
 0000:00008000 Abs   CPU_WRAM_SIZE
 0000:00048000 Abs   WRAM_SIZE
 0000:00047FA0 Abs   USR_BUF_SIZE
 0000:00000080 Abs   SYS_BUF_SIZE
 0000:00000400 Abs   PLTT_SIZE
 0000:00000200 Abs   BG_PLTT_SIZE
 0000:00000200 Abs   OBJ_PLTT_SIZE
 0000:00018000 Abs   VRAM_SIZE
 0000:00010000 Abs   BG_MODE0_VRAM_SIZE
 0000:00010000 Abs   BG_MODE1_VRAM_SIZE
 0000:00010000 Abs   BG_MODE2_VRAM_SIZE
 0000:00014000 Abs   BG_MODE3_VRAM_SIZE
 0000:0000A000 Abs   BG_MODE4_VRAM_SIZE
 0000:0000A000 Abs   BG_MODE5_VRAM_SIZE
 0000:00008000 Abs   OBJ_MODE0_VRAM_SIZE
 0000:00008000 Abs   OBJ_MODE1_VRAM_SIZE
 0000:00008000 Abs   OBJ_MODE2_VRAM_SIZE
 0000:00004000 Abs   OBJ_MODE3_VRAM_SIZE
 0000:00004000 Abs   OBJ_MODE4_VRAM_SIZE
 0000:00004000 Abs   OBJ_MODE5_VRAM_SIZE
 0000:00000400 Abs   OAM_SIZE
 0000:02000000 Abs   ROM_BANK_SIZE
 0000:02000000 Abs   ROM_BANK0_SIZE
 0000:02000000 Abs   ROM_BANK1_SIZE
 0000:02000000 Abs   ROM_BANK2_SIZE
 0000:02000000 Abs   RAM_BANK_SIZE
 0000:00020000 Abs   FLASH_1M_SIZE
 0000:04000208 Abs   REG_IME
 0000:04000200 Abs   REG_IE
 0000:04000202 Abs   REG_IF
 0000:04000204 Abs   REG_WAITCNT
 0000:04000000 Abs   REG_DISPCNT
 0000:04000004 Abs   REG_STAT
 0000:04000006 Abs   REG_VCOUNT
 0000:0400004C Abs   REG_MOSAIC
 0000:04000050 Abs   REG_BLDCNT
 0000:04000052 Abs   REG_BLDALPHA
 0000:04000054 Abs   REG_BLDY
 0000:04000040 Abs   REG_WINCNT
 0000:04000040 Abs   REG_WIN0H
 0000:04000042 Abs   REG_WIN1H
 0000:04000044 Abs   REG_WIN0V
 0000:04000046 Abs   REG_WIN1V
 0000:04000048 Abs   REG_WININ
 0000:04000048 Abs   REG_WIN0
 0000:04000049 Abs   REG_WIN1
 0000:0400004A Abs   REG_WINOUT
 0000:0400004B Abs   REG_OBJWIN
 0000:04000008 Abs   REG_BGCNT
 0000:04000008 Abs   REG_BG0CNT
 0000:0400000A Abs   REG_BG1CNT
 0000:0400000C Abs   REG_BG2CNT
 0000:0400000E Abs   REG_BG3CNT
 0000:04000010 Abs   REG_BGOFS
 0000:04000010 Abs   REG_BG0HOFS
 0000:04000012 Abs   REG_BG0VOFS
 0000:04000014 Abs   REG_BG1HOFS
 0000:04000016 Abs   REG_BG1VOFS
 0000:04000018 Abs   REG_BG2HOFS
 0000:0400001A Abs   REG_BG2VOFS
 0000:0400001C Abs   REG_BG3HOFS
 0000:0400001E Abs   REG_BG3VOFS
 0000:04000020 Abs   REG_BG2AFFINE
 0000:04000020 Abs   REG_BG2PA
 0000:04000022 Abs   REG_BG2PB
 0000:04000024 Abs   REG_BG2PC
 0000:04000026 Abs   REG_BG2PD
 0000:04000028 Abs   REG_BG2X
 0000:04000028 Abs   REG_BG2X_L
 0000:0400002A Abs   REG_BG2X_H
 0000:0400002C Abs   REG_BG2Y
 0000:0400002C Abs   REG_BG2Y_L
 0000:0400002E Abs   REG_BG2Y_H
 0000:04000030 Abs   REG_BG3AFFINE
 0000:04000030 Abs   REG_BG3PA
 0000:04000032 Abs   REG_BG3PB
 0000:04000034 Abs   REG_BG3PC
 0000:04000036 Abs   REG_BG3PD
 0000:04000038 Abs   REG_BG3X
 0000:04000038 Abs   REG_BG3X_L
 0000:0400003A Abs   REG_BG3X_H
 0000:0400003C Abs   REG_BG3Y
 0000:0400003C Abs   REG_BG3Y_L
 0000:0400003E Abs   REG_BG3Y_H
 0000:04000080 Abs   REG_SOUNDCNT
 0000:04000080 Abs   REG_SOUNDCNT_L
 0000:04000082 Abs   REG_SOUNDCNT_H
 0000:04000084 Abs   REG_SOUNDCNT_X
 0000:04000088 Abs   REG_SOUNDBIAS
 0000:04000060 Abs   REG_SOUND1CNT
 0000:04000060 Abs   REG_SOUND1CNT_L
 0000:04000062 Abs   REG_SOUND1CNT_H
 0000:04000064 Abs   REG_SOUND1CNT_X
 0000:04000068 Abs   REG_SOUND2CNT
 0000:04000068 Abs   REG_SOUND2CNT_L
 0000:0400006C Abs   REG_SOUND2CNT_H
 0000:04000070 Abs   REG_SOUND3CNT
 0000:04000070 Abs   REG_SOUND3CNT_L
 0000:04000072 Abs   REG_SOUND3CNT_H
 0000:04000074 Abs   REG_SOUND3CNT_X
 0000:04000078 Abs   REG_SOUND4CNT
 0000:04000078 Abs   REG_SOUND4CNT_L
 0000:0400007C Abs   REG_SOUND4CNT_H
 0000:04000090 Abs   REG_WAVE_RAM
 0000:04000090 Abs   REG_WAVE_RAM0
 0000:04000090 Abs   REG_WAVE_RAM0_L
 0000:04000092 Abs   REG_WAVE_RAM0_H
 0000:04000094 Abs   REG_WAVE_RAM1
 0000:04000094 Abs   REG_WAVE_RAM1_L
 0000:04000096 Abs   REG_WAVE_RAM1_H
 0000:04000098 Abs   REG_WAVE_RAM2
 0000:04000098 Abs   REG_WAVE_RAM2_L
 0000:0400009A Abs   REG_WAVE_RAM2_H
 0000:0400009C Abs   REG_WAVE_RAM3
 0000:0400009C Abs   REG_WAVE_RAM3_L
 0000:0400009E Abs   REG_WAVE_RAM3_H
 0000:040000A0 Abs   REG_FIFO
 0000:040000A0 Abs   REG_FIFO_A
 0000:040000A0 Abs   REG_FIFO_A_L
 0000:040000A2 Abs   REG_FIFO_A_H
 0000:040000A4 Abs   REG_FIFO_B
 0000:040000A4 Abs   REG_FIFO_B_L
 0000:040000A6 Abs   REG_FIFO_B_H
 0000:040000B0 Abs   REG_DMA0
 0000:040000B0 Abs   REG_DMA0SAD
 0000:040000B0 Abs   REG_DMA0SAD_L
 0000:040000B2 Abs   REG_DMA0SAD_H
 0000:040000B4 Abs   REG_DMA0DAD
 0000:040000B4 Abs   REG_DMA0DAD_L
 0000:040000B6 Abs   REG_DMA0DAD_H
 0000:040000B8 Abs   REG_DMA0CNT
 0000:040000B8 Abs   REG_DMA0CNT_L
 0000:040000BA Abs   REG_DMA0CNT_H
 0000:040000BC Abs   REG_DMA1
 0000:040000BC Abs   REG_DMA1SAD
 0000:040000BC Abs   REG_DMA1SAD_L
 0000:040000BE Abs   REG_DMA1SAD_H
 0000:040000C0 Abs   REG_DMA1DAD
 0000:040000C0 Abs   REG_DMA1DAD_L
 0000:040000C2 Abs   REG_DMA1DAD_H
 0000:040000C4 Abs   REG_DMA1CNT
 0000:040000C4 Abs   REG_DMA1CNT_L
 0000:040000C6 Abs   REG_DMA1CNT_H
 0000:040000C8 Abs   REG_DMA2
 0000:040000C8 Abs   REG_DMA2SAD
 0000:040000C8 Abs   REG_DMA2SAD_L
 0000:040000CA Abs   REG_DMA2SAD_H
 0000:040000CC Abs   REG_DMA2DAD
 0000:040000CC Abs   REG_DMA2DAD_L
 0000:040000CE Abs   REG_DMA2DAD_H
 0000:040000D0 Abs   REG_DMA2CNT
 0000:040000D0 Abs   REG_DMA2CNT_L
 0000:040000D2 Abs   REG_DMA2CNT_H
 0000:040000D4 Abs   REG_DMA3
 0000:040000D4 Abs   REG_DMA3SAD
 0000:040000D4 Abs   REG_DMA3SAD_L
 0000:040000D6 Abs   REG_DMA3SAD_H
 0000:040000D8 Abs   REG_DMA3DAD
 0000:040000D8 Abs   REG_DMA3DAD_L
 0000:040000DA Abs   REG_DMA3DAD_H
 0000:040000DC Abs   REG_DMA3CNT
 0000:040000DC Abs   REG_DMA3CNT_L
 0000:040000DE Abs   REG_DMA3CNT_H
 0000:04000100 Abs   REG_TM0CNT
 0000:04000100 Abs   REG_TM0CNT_L
 0000:04000102 Abs   REG_TM0CNT_H
 0000:04000104 Abs   REG_TM1CNT
 0000:04000104 Abs   REG_TM1CNT_L
 0000:04000106 Abs   REG_TM1CNT_H
 0000:04000108 Abs   REG_TM2CNT
 0000:04000108 Abs   REG_TM2CNT_L
 0000:0400010A Abs   REG_TM2CNT_H
 0000:0400010C Abs   REG_TM3CNT
 0000:0400010C Abs   REG_TM3CNT_L
 0000:0400010E Abs   REG_TM3CNT_H
 0000:04000134 Abs   REG_RCNT
 0000:04000128 Abs   REG_SIOCNT
 0000:0400012A Abs   REG_SIODATA8
 0000:04000120 Abs   REG_SIODATA32
 0000:0400012A Abs   REG_SIOMLT_SEND
 0000:04000120 Abs   REG_SIOMLT_RECV
 0000:04000120 Abs   REG_SIOMULTI0
 0000:04000122 Abs   REG_SIOMULTI1
 0000:04000124 Abs   REG_SIOMULTI2
 0000:04000126 Abs   REG_SIOMULTI3
 0000:04000140 Abs   REG_JOYCNT
 0000:04000158 Abs   REG_JOYSTAT
 0000:04000150 Abs   REG_JOY_RECV
 0000:04000150 Abs   REG_JOY_RECV_L
 0000:04000152 Abs   REG_JOY_RECV_H
 0000:04000154 Abs   REG_JOY_TRANS
 0000:04000154 Abs   REG_JOY_TRANS_L
 0000:04000156 Abs   REG_JOY_TRANS_H
 0000:04000130 Abs   REG_KEYINPUT
 0000:04000132 Abs   REG_KEYCNT
 0000:00000208 Abs   OFFSET_REG_IME
 0000:00000200 Abs   OFFSET_REG_IE
 0000:00000202 Abs   OFFSET_REG_IF
 0000:00000204 Abs   OFFSET_REG_WAITCNT
 0000:00000000 Abs   OFFSET_REG_DISPCNT
 0000:00000004 Abs   OFFSET_REG_STAT
 0000:00000006 Abs   OFFSET_REG_VCOUNT
 0000:0000004C Abs   OFFSET_REG_MOSAIC
 0000:00000050 Abs   OFFSET_REG_BLDCNT
 0000:00000052 Abs   OFFSET_REG_BLDALPHA
 0000:00000054 Abs   OFFSET_REG_BLDY
 0000:00000040 Abs   OFFSET_REG_WINCNT
 0000:00000040 Abs   OFFSET_REG_WIN0H
 0000:00000042 Abs   OFFSET_REG_WIN1H
 0000:00000044 Abs   OFFSET_REG_WIN0V
 0000:00000046 Abs   OFFSET_REG_WIN1V
 0000:00000048 Abs   OFFSET_REG_WININ
 0000:00000048 Abs   OFFSET_REG_WIN0
 0000:00000049 Abs   OFFSET_REG_WIN1
 0000:0000004A Abs   OFFSET_REG_WINOUT
 0000:0000004B Abs   OFFSET_REG_OBJWIN
 0000:00000008 Abs   OFFSET_REG_BGCNT
 0000:00000008 Abs   OFFSET_REG_BG0CNT
 0000:0000000A Abs   OFFSET_REG_BG1CNT
 0000:0000000C Abs   OFFSET_REG_BG2CNT
 0000:0000000E Abs   OFFSET_REG_BG3CNT
 0000:00000010 Abs   OFFSET_REG_BGOFS
 0000:00000010 Abs   OFFSET_REG_BG0HOFS
 0000:00000012 Abs   OFFSET_REG_BG0VOFS
 0000:00000014 Abs   OFFSET_REG_BG1HOFS
 0000:00000016 Abs   OFFSET_REG_BG1VOFS
 0000:00000018 Abs   OFFSET_REG_BG2HOFS
 0000:0000001A Abs   OFFSET_REG_BG2VOFS
 0000:0000001C Abs   OFFSET_REG_BG3HOFS
 0000:0000001E Abs   OFFSET_REG_BG3VOFS
 0000:00000020 Abs   OFFSET_REG_BG2AFFINE
 0000:00000020 Abs   OFFSET_REG_BG2PA
 0000:00000022 Abs   OFFSET_REG_BG2PB
 0000:00000024 Abs   OFFSET_REG_BG2PC
 0000:00000026 Abs   OFFSET_REG_BG2PD
 0000:00000028 Abs   OFFSET_REG_BG2X
 0000:00000028 Abs   OFFSET_REG_BG2X_L
 0000:0000002A Abs   OFFSET_REG_BG2X_H
 0000:0000002C Abs   OFFSET_REG_BG2Y
 0000:0000002C Abs   OFFSET_REG_BG2Y_L
 0000:0000002E Abs   OFFSET_REG_BG2Y_H
 0000:00000030 Abs   OFFSET_REG_BG3AFFINE
 0000:00000030 Abs   OFFSET_REG_BG3PA
 0000:00000032 Abs   OFFSET_REG_BG3PB
 0000:00000034 Abs   OFFSET_REG_BG3PC
 0000:00000036 Abs   OFFSET_REG_BG3PD
 0000:00000038 Abs   OFFSET_REG_BG3X
 0000:00000038 Abs   OFFSET_REG_BG3X_L
 0000:0000003A Abs   OFFSET_REG_BG3X_H
 0000:0000003C Abs   OFFSET_REG_BG3Y
 0000:0000003C Abs   OFFSET_REG_BG3Y_L
 0000:0000003E Abs   OFFSET_REG_BG3Y_H
 0000:00000080 Abs   OFFSET_REG_SOUNDCNT
 0000:00000080 Abs   OFFSET_REG_SOUNDCNT_L
 0000:00000082 Abs   OFFSET_REG_SOUNDCNT_H
 0000:00000084 Abs   OFFSET_REG_SOUNDCNT_X
 0000:00000088 Abs   OFFSET_REG_SOUNDBIAS
 0000:00000060 Abs   OFFSET_REG_SOUND1CNT
 0000:00000060 Abs   OFFSET_REG_SOUND1CNT_L
 0000:00000062 Abs   OFFSET_REG_SOUND1CNT_H
 0000:00000064 Abs   OFFSET_REG_SOUND1CNT_X
 0000:00000068 Abs   OFFSET_REG_SOUND2CNT
 0000:00000068 Abs   OFFSET_REG_SOUND2CNT_L
 0000:0000006C Abs   OFFSET_REG_SOUND2CNT_H
 0000:00000070 Abs   OFFSET_REG_SOUND3CNT
 0000:00000070 Abs   OFFSET_REG_SOUND3CNT_L
 0000:00000072 Abs   OFFSET_REG_SOUND3CNT_H
 0000:00000074 Abs   OFFSET_REG_SOUND3CNT_X
 0000:00000078 Abs   OFFSET_REG_SOUND4CNT
 0000:00000078 Abs   OFFSET_REG_SOUND4CNT_L
 0000:0000007C Abs   OFFSET_REG_SOUND4CNT_H
 0000:00000090 Abs   OFFSET_REG_WAVE_RAM
 0000:00000090 Abs   OFFSET_REG_WAVE_RAM0
 0000:00000090 Abs   OFFSET_REG_WAVE_RAM0_L
 0000:00000092 Abs   OFFSET_REG_WAVE_RAM0_H
 0000:00000094 Abs   OFFSET_REG_WAVE_RAM1
 0000:00000094 Abs   OFFSET_REG_WAVE_RAM1_L
 0000:00000096 Abs   OFFSET_REG_WAVE_RAM1_H
 0000:00000098 Abs   OFFSET_REG_WAVE_RAM2
 0000:00000098 Abs   OFFSET_REG_WAVE_RAM2_L
 0000:0000009A Abs   OFFSET_REG_WAVE_RAM2_H
 0000:0000009C Abs   OFFSET_REG_WAVE_RAM3
 0000:0000009C Abs   OFFSET_REG_WAVE_RAM3_L
 0000:0000009E Abs   OFFSET_REG_WAVE_RAM3_H
 0000:000000A0 Abs   OFFSET_REG_FIFO
 0000:000000A0 Abs   OFFSET_REG_FIFO_A
 0000:000000A0 Abs   OFFSET_REG_FIFO_A_L
 0000:000000A2 Abs   OFFSET_REG_FIFO_A_H
 0000:000000A4 Abs   OFFSET_REG_FIFO_B
 0000:000000A4 Abs   OFFSET_REG_FIFO_B_L
 0000:000000A6 Abs   OFFSET_REG_FIFO_B_H
 0000:000000B0 Abs   OFFSET_REG_DMA0
 0000:000000B0 Abs   OFFSET_REG_DMA0SAD
 0000:000000B0 Abs   OFFSET_REG_DMA0SAD_L
 0000:000000B2 Abs   OFFSET_REG_DMA0SAD_H
 0000:000000B4 Abs   OFFSET_REG_DMA0DAD
 0000:000000B4 Abs   OFFSET_REG_DMA0DAD_L
 0000:000000B6 Abs   OFFSET_REG_DMA0DAD_H
 0000:000000B8 Abs   OFFSET_REG_DMA0CNT
 0000:000000B8 Abs   OFFSET_REG_DMA0CNT_L
 0000:000000BA Abs   OFFSET_REG_DMA0CNT_H
 0000:000000BC Abs   OFFSET_REG_DMA1
 0000:000000BC Abs   OFFSET_REG_DMA1SAD
 0000:000000BC Abs   OFFSET_REG_DMA1SAD_L
 0000:000000BE Abs   OFFSET_REG_DMA1SAD_H
 0000:000000C0 Abs   OFFSET_REG_DMA1DAD
 0000:000000C0 Abs   OFFSET_REG_DMA1DAD_L
 0000:000000C2 Abs   OFFSET_REG_DMA1DAD_H
 0000:000000C4 Abs   OFFSET_REG_DMA1CNT
 0000:000000C4 Abs   OFFSET_REG_DMA1CNT_L
 0000:000000C6 Abs   OFFSET_REG_DMA1CNT_H
 0000:000000C8 Abs   OFFSET_REG_DMA2
 0000:000000C8 Abs   OFFSET_REG_DMA2SAD
 0000:000000C8 Abs   OFFSET_REG_DMA2SAD_L
 0000:000000CA Abs   OFFSET_REG_DMA2SAD_H
 0000:000000CC Abs   OFFSET_REG_DMA2DAD
 0000:000000CC Abs   OFFSET_REG_DMA2DAD_L
 0000:000000CE Abs   OFFSET_REG_DMA2DAD_H
 0000:000000D0 Abs   OFFSET_REG_DMA2CNT
 0000:000000D0 Abs   OFFSET_REG_DMA2CNT_L
 0000:000000D2 Abs   OFFSET_REG_DMA2CNT_H
 0000:000000D4 Abs   OFFSET_REG_DMA3
 0000:000000D4 Abs   OFFSET_REG_DMA3SAD
 0000:000000D4 Abs   OFFSET_REG_DMA3SAD_L
 0000:000000D6 Abs   OFFSET_REG_DMA3SAD_H
 0000:000000D8 Abs   OFFSET_REG_DMA3DAD
 0000:000000D8 Abs   OFFSET_REG_DMA3DAD_L
 0000:000000DA Abs   OFFSET_REG_DMA3DAD_H
 0000:000000DC Abs   OFFSET_REG_DMA3CNT
 0000:000000DC Abs   OFFSET_REG_DMA3CNT_L
 0000:000000DE Abs   OFFSET_REG_DMA3CNT_H
 0000:00000100 Abs   OFFSET_REG_TM0CNT
 0000:00000100 Abs   OFFSET_REG_TM0CNT_L
 0000:00000102 Abs   OFFSET_REG_TM0CNT_H
 0000:00000104 Abs   OFFSET_REG_TM1CNT
 0000:00000104 Abs   OFFSET_REG_TM1CNT_L
 0000:00000106 Abs   OFFSET_REG_TM1CNT_H
 0000:00000108 Abs   OFFSET_REG_TM2CNT
 0000:00000108 Abs   OFFSET_REG_TM2CNT_L
 0000:0000010A Abs   OFFSET_REG_TM2CNT_H
 0000:0000010C Abs   OFFSET_REG_TM3CNT
 0000:0000010C Abs   OFFSET_REG_TM3CNT_L
 0000:0000010E Abs   OFFSET_REG_TM3CNT_H
 0000:00000134 Abs   OFFSET_REG_RCNT
 0000:00000128 Abs   OFFSET_REG_SIOCNT
 0000:0000012A Abs   OFFSET_REG_SIODATA8
 0000:00000120 Abs   OFFSET_REG_SIODATA32
 0000:0000012A Abs   OFFSET_REG_SIOMLT_SEND
 0000:00000120 Abs   OFFSET_REG_SIOMLT_RECV
 0000:00000120 Abs   OFFSET_REG_SIOMULTI0
 0000:00000122 Abs   OFFSET_REG_SIOMULTI1
 0000:00000124 Abs   OFFSET_REG_SIOMULTI2
 0000:00000126 Abs   OFFSET_REG_SIOMULTI3
 0000:00000140 Abs   OFFSET_REG_JOYCNT
 0000:00000158 Abs   OFFSET_REG_JOYSTAT
 0000:00000150 Abs   OFFSET_REG_JOY_RECV
 0000:00000150 Abs   OFFSET_REG_JOY_RECV_L
 0000:00000152 Abs   OFFSET_REG_JOY_RECV_H
 0000:00000154 Abs   OFFSET_REG_JOY_TRANS
 0000:00000154 Abs   OFFSET_REG_JOY_TRANS_L
 0000:00000156 Abs   OFFSET_REG_JOY_TRANS_H
 0000:00000130 Abs   OFFSET_REG_KEYINPUT
 0000:00000132 Abs   OFFSET_REG_KEYCNT
 0000:00000000 Abs   SWI_NO_RESTART
 0000:00000001 Abs   SWI_NO_REGISTER_RAM_RESET
 0000:00000002 Abs   SWI_NO_HALT
 0000:00000003 Abs   SWI_NO_STOP
 0000:00000004 Abs   SWI_NO_INTR_WAIT
 0000:00000005 Abs   SWI_NO_VBLANK_INTR_WAIT
 0000:00000006 Abs   SWI_NO_DIV
 0000:00000007 Abs   SWI_NO_DIV_ARM
 0000:00000008 Abs   SWI_NO_SQRT
 0000:00000009 Abs   SWI_NO_ARCTAN
 0000:0000000A Abs   SWI_NO_ARCTAN2
 0000:0000000B Abs   SWI_NO_CPU_SET
 0000:0000000C Abs   SWI_NO_CPU_FAST_SET
 0000:0000000E Abs   SWI_NO_BG_AFFINE_SET
 0000:0000000F Abs   SWI_NO_OBJ_AFFINE_SET
 0000:00000010 Abs   SWI_NO_BIT_UNPACK
 0000:00000011 Abs   SWI_NO_LZ77_UNCOMP_WRAM
 0000:00000012 Abs   SWI_NO_LZ77_UNCOMP_VRAM
 0000:00000013 Abs   SWI_NO_HUFF_UNCOMP
 0000:00000014 Abs   SWI_NO_RL_UNCOMP_WRAM
 0000:00000015 Abs   SWI_NO_RL_UNCOMP_VRAM
 0000:00000016 Abs   SWI_NO_DIFF_8BIT_UNFILTER_WRAM
 0000:00000017 Abs   SWI_NO_DIFF_8BIT_UNFILTER_VRAM
 0000:00000018 Abs   SWI_NO_DIFF_16BIT_UNFILTER
 0000:00000019 Abs   SWI_NO_SOUND_BIAS_CHANGE
 0000:0000001A Abs   SWI_NO_SOUND_DRIVER_INIT
 0000:0000001B Abs   SWI_NO_SOUND_DRIVER_MODE
 0000:0000001C Abs   SWI_NO_SOUND_DRIVER_MAIN
 0000:0000001D Abs   SWI_NO_SOUND_DRIVER_VSYNC
 0000:00000028 Abs   SWI_NO_SOUND_DRIVER_VSYNC_OFF
 0000:00000029 Abs   SWI_NO_SOUND_DRIVER_VSYNC_ON
 0000:0000001E Abs   SWI_NO_SOUND_CHANNEL_CLEAR
 0000:0000001F Abs   SWI_NO_MIDI_KEY_2_FREQ
 0000:00000025 Abs   SWI_NO_MULTI_BOOT
 0000:00000001 Abs   S
 0000:00000000 Abs   _ABS_
 0000:00000001 Abs   LVL_BEACH_00
 0000:00000002 Abs   LVL_BEACH_01
 0000:00000003 Abs   LVL_BEACH_02
 0000:00000004 Abs   LVL_BEACH_03
 0000:00000005 Abs   LVL_LAVA_00
 0000:00000006 Abs   LVL_LAVA_01
 0000:00000007 Abs   LVL_LAVA_02
 0000:00000008 Abs   LVL_SNOW_00
 0000:00000009 Abs   LVL_SNOW_01
 0000:0000000A Abs   LVL_SNOW_02
 0000:0000000B Abs   LVL_SNOW_03
 0000:0000000C Abs   LVL_KEEP_00
 0000:0000000D Abs   LVL_KEEP_01
 0000:0000000E Abs   LVL_KEEP_02
 0000:0000000F Abs   LVL_KEEP_03
 0000:00000010 Abs   LVL_LAKE_00
 0000:00000011 Abs   LVL_LAKE_01
 0000:00000012 Abs   LVL_LAKE_02
 0000:00000013 Abs   LVL_LAKE_03
 0000:00000014 Abs   LVL_FARM_00
 0000:00000015 Abs   LVL_FARM_01
 0000:00000016 Abs   LVL_FARM_02
 0000:00000017 Abs   LVL_FARM_03
 0000:00000018 Abs   LVL_FARM_04
 0000:00000019 Abs   LVL_FARM_05
 0000:0000001A Abs   LVL_SWAMP_00
 0000:0000001B Abs   LVL_SWAMP_01
 0000:0000001C Abs   LVL_SWAMP_02
 0000:0000001D Abs   LVL_SWAMP_03
 0000:0000001E Abs   LVL_HAUNTED_00
 0000:0000001F Abs   LVL_HAUNTED_01
 0000:00000020 Abs   LVL_HAUNTED_02
 0000:00000021 Abs   LVL_HAUNTED_03
 0000:00000022 Abs   LVL_JUNGLE_00
 0000:00000023 Abs   LVL_JUNGLE_01
 0000:00000024 Abs   LVL_JUNGLE_02
 0000:00000025 Abs   LVL_JUNGLE_03
 0000:00000026 Abs   LVL_DESERT_00
 0000:00000027 Abs   LVL_DESERT_01
 0000:00000028 Abs   LVL_DESERT_02
 0000:00000029 Abs   LVL_DESERT_03
 0000:0000002A Abs   LVL_NUM
 0000:00000001 Abs   SPR_DIDDYFRAMES
 0000:00000002 Abs   SPR_DIXIEFRAMES
 0000:00000003 Abs   SPR_KONGFRAMES
 0000:00000004 Abs   SPR_KRUNCHFRAMES
 0000:00000005 Abs   SPR_CRANKYFRAMES
 0000:00000006 Abs   SPR_KROOLFRAMES
 0000:00000007 Abs   SPR_PALMTREE
 0000:00000008 Abs   SPR_GUNHUT
 0000:00000009 Abs   SPR_BEACHHUT
 0000:0000000A Abs   SPR_MELON
 0000:0000000B Abs   SPR_MANGO
 0000:0000000C Abs   SPR_GREEN_MISSILE
 0000:0000000D Abs   SPR_RED_MISSILE
 0000:0000000E Abs   SPR_TARGET
 0000:0000000F Abs   SPR_SPLAT
 0000:00000010 Abs   SPR_FIRE
 0000:00000011 Abs   SPR_SNOWTREE1
 0000:00000012 Abs   SPR_SNOWTREE3
 0000:00000013 Abs   SPR_IGLOO
 0000:00000014 Abs   SPR_WIGWAM
 0000:00000015 Abs   SPR_LAKE_TREE
 0000:00000016 Abs   SPR_HUD_FLAGA
 0000:00000017 Abs   SPR_HUD_FLAGB
 0000:00000018 Abs   SPR_PAUSEOPTIONS
 0000:00000019 Abs   SPR_GHOST
 0000:0000001A Abs   SPR_PUMPKIN
 0000:0000001B Abs   SPR_SKULL
 0000:0000001C Abs   SPR_DEADTREE
 0000:0000001D Abs   SPR_SOUL
 0000:0000001E Abs   SPR_EVILGHOST
 0000:0000001F Abs   SPR_MUSHROOM
 0000:00000020 Abs   SPR_FARM_TREE
 0000:00000021 Abs   SPR_FARM_CHICKEN
 0000:00000022 Abs   SPR_FARM_RABBIT
 0000:00000023 Abs   SPR_FLYING_VEG
 0000:00000024 Abs   SPR_FARM_EGG
 0000:00000025 Abs   SPR_SWAMP_TREE
 0000:00000026 Abs   SPR_SWAMP_FROG_HANGING
 0000:00000027 Abs   SPR_SWAMP_FROG_ON_PAD
 0000:00000028 Abs   SPR_SWAMP_GOO_GUN_MON
 0000:00000029 Abs   SPR_SWAMP_TARGET_MON_HIT
 0000:0000002A Abs   SPR_SWAMP_TARGET_MON_JUMP
 0000:0000002B Abs   SPR_STONEPILLAR
 0000:0000002C Abs   SPR_JUNGLE_WORM_JUMP
 0000:0000002D Abs   SPR_CANDY_HEAD
 0000:0000002E Abs   SPR_CRANKY_HEAD
 0000:0000002F Abs   SPR_DIDDY_HEAD
 0000:00000030 Abs   SPR_DIXIE_HEAD
 0000:00000031 Abs   SPR_KONG_HEAD
 0000:00000032 Abs   SPR_GHOST_HEAD
 0000:00000033 Abs   SPR_KROOL_HEAD
 0000:00000034 Abs   SPR_KRUNCH_HEAD
 0000:00000035 Abs   SPR_WPN_POPI
 0000:00000036 Abs   SPR_WPN_CHCI
 0000:00000037 Abs   SPR_WPN_BOBL
 0000:00000038 Abs   SPR_WPN_SWSW
 0000:00000039 Abs   SPR_WPN_PRPA
 0000:0000003A Abs   SPR_WPN_BORO
 0000:0000003B Abs   SPR_WPN_HIHA
 0000:0000003C Abs   SPR_WPN_FLFL
 0000:0000003D Abs   SPR_WPN_LODO
 0000:0000003E Abs   SPR_WPN_WIWO
 0000:0000003F Abs   SPR_WPN_WIWE
 0000:00000040 Abs   SPR_WPN_PEPO
 0000:00000041 Abs   SPR_WPN_HOBA
 0000:00000042 Abs   SPR_WPN_CHBA
 0000:00000043 Abs   SPR_WPN_MEMI
 0000:00000044 Abs   SPR_WPN_MAME
 0000:00000045 Abs   SPR_WPN_WASH
 0000:00000046 Abs   SPR_WPN_GRGR
 0000:00000047 Abs   SPR_WPN_CLGR
 0000:00000048 Abs   SPR_WPN_BABA
 0000:00000049 Abs   SPR_WPN_SISC
 0000:0000004A Abs   SPR_WPN_BUBO
 0000:0000004B Abs   SPR_WPN_BABL
 0000:0000004C Abs   SPR_WPN_BLBO
 0000:0000004D Abs   SPR_WPN_CRCO
 0000:0000004E Abs   SPR_WPN_SHDI
 0000:0000004F Abs   SPR_WPN_BABU
 0000:00000050 Abs   SPR_WPN_RODR
 0000:00000051 Abs   SPR_WPN_RERE
 0000:00000052 Abs   SPR_WPN_CHANCE
 0000:00000053 Abs   SPR_SHADOW_CIRCLE
 0000:00000054 Abs   SPR_CHANCE
 0000:00000055 Abs   SPR_DKWINGS
 0000:00000056 Abs   SPR_Q_BALLOON
 0000:00000057 Abs   SPR_START_SIGN
 0000:00000058 Abs   SPR_START_DOT
 0000:00000059 Abs   SPR_STAR
 0000:0000005A Abs   SPR_PYLON
 0000:0000005B Abs   SPR_BANANA
 0000:0000005C Abs   SPR_HUD_BANANA
 0000:0000005D Abs   SPR_MINE
 0000:0000005E Abs   SPR_BOOSTER
 0000:0000005F Abs   SPR_FIRST
 0000:00000060 Abs   SPR_FINALLAP
 0000:00000061 Abs   SPR_LOGOCOIN
 0000:00000062 Abs   SPR_LAP_TWO
 0000:00000063 Abs   SPR_HUD_MAP_LAVA_00
 0000:00000064 Abs   SPR_HUD_MAP_LAVA_01
 0000:00000065 Abs   SPR_HUD_MAP_KEEP_00
 0000:00000066 Abs   SPR_HUD_MAP_BEACH_00
 0000:00000067 Abs   SPR_HUD_MAP_BEACH_01
 0000:00000068 Abs   SPR_HUD_MAP_BEACH_02
 0000:00000069 Abs   SPR_HUD_MAP_LAKE_00
 0000:0000006A Abs   SPR_HUD_MAP_LAKE_01
 0000:0000006B Abs   SPR_HUD_MAP_SNOW_00
 0000:0000006C Abs   SPR_HUD_MAP_SNOW_01
 0000:0000006D Abs   SPR_HUD_MAP_FARM_00
 0000:0000006E Abs   SPR_HUD_MAP_FARM_01
 0000:0000006F Abs   SPR_HUD_MAP_FARM_03
 0000:00000070 Abs   SPR_HUD_MAP_HAUNTED_00
 0000:00000071 Abs   SPR_HUD_MAP_HAUNTED_01
 0000:00000072 Abs   SPR_HUD_MAP_HAUNTED_02
 0000:00000073 Abs   SPR_HUD_MAP_ARROWS
 0000:00000074 Abs   SPR_HUD_POS
 0000:00000075 Abs   SPR_HUD_DIGITS
 0000:00000076 Abs   SPR_HUD_NUMS
 0000:00000077 Abs   SPR_HUD_ARROWS
 0000:00000078 Abs   SPR_SHOT_GFX
 0000:00000079 Abs   SPR_HUD_GO
 0000:0000007A Abs   SPR_HUD_GETREADY
 0000:0000007B Abs   SPR_HUD_FINISH
 0000:0000007C Abs   SPR_HUD_RETIRE
 0000:0000007D Abs   SPR_HUD_COUNTER
 0000:0000007E Abs   SPR_NUM
 0000:00000001 Abs   PAL_DIDDYFRAMES
 0000:00000002 Abs   PAL_KRUNCHFRAMES
 0000:00000003 Abs   PAL_CRANKYFRAMES
 0000:00000004 Abs   PAL_KROOLFRAMES
 0000:00000005 Abs   PAL_DIXIEFRAMES
 0000:00000006 Abs   PAL_KONGFRAMES
 0000:00000007 Abs   PAL_MELON
 0000:00000008 Abs   PAL_MANGO
 0000:00000009 Abs   PAL_SPLAT
 0000:0000000A Abs   PAL_LAKE_TREE
 0000:0000000B Abs   PAL_BEACHHUT
 0000:0000000C Abs   PAL_PALMTREE
 0000:0000000D Abs   PAL_GUNHUT
 0000:0000000E Abs   PAL_STONEPILLAR
 0000:0000000F Abs   PAL_JUNGLE_WORM_JUMP
 0000:00000010 Abs   PAL_GHOST
 0000:00000011 Abs   PAL_PUMPKIN
 0000:00000012 Abs   PAL_SKULL
 0000:00000013 Abs   PAL_DEADTREE
 0000:00000014 Abs   PAL_SOUL
 0000:00000015 Abs   PAL_EVILGHOST
 0000:00000016 Abs   PAL_MUSHROOM
 0000:00000017 Abs   PAL_FARM_TREE
 0000:00000018 Abs   PAL_FARM_CHICKEN
 0000:00000019 Abs   PAL_FARM_RABBIT
 0000:0000001A Abs   PAL_FLYING_VEG
 0000:0000001B Abs   PAL_FARM_EGG
 0000:0000001C Abs   PAL_MINE
 0000:0000001D Abs   PAL_MINE2
 0000:0000001E Abs   PAL_SWAMP_TREE
 0000:0000001F Abs   PAL_SWAMP_FROG
 0000:00000020 Abs   PAL_SWAMP_TARGET_MON
 0000:00000021 Abs   PAL_SWAMP_GOO_GUN_MON
 0000:00000022 Abs   PAL_TIDE_ANIM
 0000:00000023 Abs   PAL_CRAB
 0000:00000024 Abs   PAL_BOOSTER
 0000:00000025 Abs   PAL_LOGOCOIN
 0000:00000026 Abs   PAL_BLUE
 0000:00000027 Abs   PAL_PYLONBLINK
 0000:00000028 Abs   PAL_ORANGE
 0000:00000029 Abs   PAL_RED
 0000:0000002A Abs   PAL_YELLOW
 0000:0000002B Abs   PAL_GREEN
 0000:0000002C Abs   PAL_LAKE_ANIM
 0000:0000002D Abs   PAL_SNOWTREE1
 0000:0000002E Abs   PAL_SNOWTREE3
 0000:0000002F Abs   PAL_IGLOO
 0000:00000030 Abs   PAL_WIGWAM
 0000:00000031 Abs   PAL_FIRE
 0000:00000032 Abs   PAL_DKWINGS
 0000:00000033 Abs   PAL_CHANCE
 0000:00000034 Abs   PAL_Q_BALLOON
 0000:00000035 Abs   PAL_WPN_POPI
 0000:00000036 Abs   PAL_WPN_CHCI
 0000:00000037 Abs   PAL_WPN_BOBL
 0000:00000038 Abs   PAL_WPN_SWSW
 0000:00000039 Abs   PAL_WPN_PRPA
 0000:0000003A Abs   PAL_WPN_BORO
 0000:0000003B Abs   PAL_WPN_HIHA
 0000:0000003C Abs   PAL_WPN_FLFL
 0000:0000003D Abs   PAL_WPN_LODO
 0000:0000003E Abs   PAL_WPN_WIWO
 0000:0000003F Abs   PAL_WPN_WIWE
 0000:00000040 Abs   PAL_WPN_PEPO
 0000:00000041 Abs   PAL_WPN_HOBA
 0000:00000042 Abs   PAL_WPN_CHBA
 0000:00000043 Abs   PAL_WPN_MEMI
 0000:00000044 Abs   PAL_WPN_MAME
 0000:00000045 Abs   PAL_WPN_WASH
 0000:00000046 Abs   PAL_WPN_BUBO
 0000:00000047 Abs   PAL_WPN_BABL
 0000:00000048 Abs   PAL_WPN_GRGR
 0000:00000049 Abs   PAL_WPN_CLGR
 0000:0000004A Abs   PAL_WPN_BABA
 0000:0000004B Abs   PAL_WPN_SISC
 0000:0000004C Abs   PAL_WPN_BLBO
 0000:0000004D Abs   PAL_WPN_CRCO
 0000:0000004E Abs   PAL_WPN_SHDI
 0000:0000004F Abs   PAL_WPN_BABU
 0000:00000050 Abs   PAL_WPN_RODR
 0000:00000051 Abs   PAL_WPN_RERE
 0000:00000052 Abs   PAL_WPN_CHANCE
 0000:00000053 Abs   PAL_CANDY_HEAD
 0000:00000054 Abs   PAL_CRANKY_HEAD
 0000:00000055 Abs   PAL_DIDDY_HEAD
 0000:00000056 Abs   PAL_DIXIE_HEAD
 0000:00000057 Abs   PAL_DONKEY_HEAD
 0000:00000058 Abs   PAL_GHOST_HEAD
 0000:00000059 Abs   PAL_KROOL_HEAD
 0000:0000005A Abs   PAL_KRUNCH_HEAD
 0000:0000005B Abs   PAL_HUD_ICONS
 0000:0000005C Abs   PAL_NUM
 0000:00000001 Abs   CLASS_PLAYER
 0000:00000002 Abs   CLASS_COMP_PLAYER
 0000:00000003 Abs   CLASS_CAMERA
 0000:00000004 Abs   CLASS_STATIC
 0000:00000005 Abs   CLASS_TREE
 0000:00000006 Abs   CLASS_BEACH_GUN
 0000:00000007 Abs   CLASS_POWERUP
 0000:00000008 Abs   CLASS_START_POS
 0000:00000009 Abs   CLASS_START_HOOP
 0000:0000000A Abs   CLASS_MINE
 0000:0000000B Abs   CLASS_BOUNCING_BOMB
 0000:0000000C Abs   CLASS_BEACH_HUT
 0000:0000000D Abs   CLASS_HUD_MAP
 0000:0000000E Abs   CLASS_HUD_BANANA
 0000:0000000F Abs   CLASS_HUD_WEAPON
 0000:00000010 Abs   CLASS_HUD_COUNTER
 0000:00000011 Abs   CLASS_HUD_DIRECTION
 0000:00000012 Abs   CLASS_HUD_POSITION
 0000:00000013 Abs   CLASS_HUD_STATUS
 0000:00000014 Abs   CLASS_BONUSITEM
 0000:00000015 Abs   CLASS_RACE_MONITOR
 0000:00000016 Abs   CLASS_BANANA
 0000:00000017 Abs   CLASS_PYLON
 0000:00000018 Abs   CLASS_TIDE_ANIM
 0000:00000019 Abs   CLASS_GROUND_BOOST_PAD
 0000:0000001A Abs   CLASS_FADER
 0000:0000001B Abs   CLASS_DIRECTIONAL_ARROW
 0000:0000001C Abs   CLASS_AIR_TURBO
 0000:0000001D Abs   CLASS_PAUSE
 0000:0000001E Abs   CLASS_MELON
 0000:0000001F Abs   CLASS_MANGO
 0000:00000020 Abs   CLASS_CANNON
 0000:00000021 Abs   CLASS_ROCKET
 0000:00000022 Abs   CLASS_CHAIN_ROCKET
 0000:00000023 Abs   CLASS_GRIP_GRAB
 0000:00000024 Abs   CLASS_CLASP_GRASP
 0000:00000025 Abs   CLASS_AIR_BOOSTER
 0000:00000026 Abs   CLASS_LAVA_FLAME
 0000:00000027 Abs   CLASS_FARM_CHICKEN
 0000:00000028 Abs   CLASS_FARM_BUNNY
 0000:00000029 Abs   CLASS_FARM_JUMPING_VEGETABLE
 0000:0000002A Abs   CLASS_FARM_EGG_GENERATOR
 0000:0000002B Abs   CLASS_FARM_NESTPOINT
 0000:0000002C Abs   CLASS_FARM_EGG
 0000:0000002D Abs   CLASS_FARM_EGG_MONITOR
 0000:0000002E Abs   CLASS_FARM_EGG_HUD
 0000:0000002F Abs   CLASS_HAUNTED_GHOST
 0000:00000030 Abs   CLASS_HAPPY_SOUL_HUD
 0000:00000031 Abs   CLASS_HAPPY_SOUL_MONITOR
 0000:00000032 Abs   CLASS_HAPPY_SOUL_GENERATOR
 0000:00000033 Abs   CLASS_HAPPY_SOUL
 0000:00000034 Abs   CLASS_SOUL_EATER
 0000:00000035 Abs   CLASS_MAGIC_WELL
 0000:00000036 Abs   CLASS_JUNGLE_GRUBHOLE
 0000:00000037 Abs   CLASS_JUNGLE_CROWPOINT
 0000:00000038 Abs   CLASS_JUNGLE_ROYALBIRD
 0000:00000039 Abs   CLASS_SWAMP_FROGPOINT
 0000:0000003A Abs   CLASS_SWAMP_TARGETBEAST
 0000:0000003B Abs   CLASS_SWAMP_LILLIEPAD
 0000:0000003C Abs   CLASS_SWAMP_GUN
 0000:0000003D Abs   CLASS_NUM
 0000:00000001 Abs   OBJ_PLAYER
 0000:00000002 Abs   OBJ_COMP_PLAYER
 0000:00000003 Abs   OBJ_CAMERA
 0000:00000004 Abs   OBJ_START_POS
 0000:00000005 Abs   OBJ_START_HOOP
 0000:00000006 Abs   OBJ_PRIZE_POINT
 0000:00000007 Abs   OBJ_MELON
 0000:00000008 Abs   OBJ_MANGO
 0000:00000009 Abs   OBJ_CANNON
 0000:0000000A Abs   OBJ_ROCKET
 0000:0000000B Abs   OBJ_CHAIN_ROCKET
 0000:0000000C Abs   OBJ_GRIP_GRAB
 0000:0000000D Abs   OBJ_CLASP_GRASP
 0000:0000000E Abs   OBJ_GUN_UPGRADE_1
 0000:0000000F Abs   OBJ_BEACH_PALMTREE
 0000:00000010 Abs   OBJ_BEACH_CRATE_POINT
 0000:00000011 Abs   OBJ_BEACH_NASTYBIRD
 0000:00000012 Abs   OBJ_KEEP_MINE
 0000:00000013 Abs   OBJ_KEEP_GRILL
 0000:00000014 Abs   OBJ_KEEP_KEYHOLE
 0000:00000015 Abs   OBJ_KEEP_FLAME
 0000:00000016 Abs   OBJ_KEEP_K_POWERPOINT
 0000:00000017 Abs   OBJ_KEEP_K_SWITCH
 0000:00000018 Abs   OBJ_KEEP_K_MISSILE
 0000:00000019 Abs   OBJ_KEEP_K_MECHAHEAD
 0000:0000001A Abs   OBJ_KEEP_PILLAR
 0000:0000001B Abs   OBJ_POWER_GENERAL
 0000:0000001C Abs   OBJ_POWER_POINT
 0000:0000001D Abs   OBJ_POWER_CHARACTER
 0000:0000001E Abs   OBJ_POWER_CHANCE
 0000:0000001F Abs   OBJ_BONUS_STAR
 0000:00000020 Abs   OBJ_BONUS_BANANA
 0000:00000021 Abs   OBJ_LAKE_TREE
 0000:00000022 Abs   OBJ_LAKE_GUN
 0000:00000023 Abs   OBJ_GUN_POINT
 0000:00000024 Abs   OBJ_NEST_POINT
 0000:00000025 Abs   OBJ_HUD_MAP
 0000:00000026 Abs   OBJ_HUD_WEAPON
 0000:00000027 Abs   OBJ_HUD_COUNTER
 0000:00000028 Abs   OBJ_HUD_DIRECTION
 0000:00000029 Abs   OBJ_HUD_POSITION
 0000:0000002A Abs   OBJ_HUD_STATUS
 0000:0000002B Abs   OBJ_HUD_BANANA
 0000:0000002C Abs   OBJ_BOUNCING_BOMB
 0000:0000002D Abs   OBJ_BEACH_GUN
 0000:0000002E Abs   OBJ_BEACH_HUT
 0000:0000002F Abs   OBJ_SNOW_IGLOO
 0000:00000030 Abs   OBJ_LAKE_WIGWAM
 0000:00000031 Abs   OBJ_SNOW_TREE_A
 0000:00000032 Abs   OBJ_SNOW_TREE_B
 0000:00000033 Abs   OBJ_BONUSITEM
 0000:00000034 Abs   OBJ_BEACH_PYLON
 0000:00000035 Abs   OBJ_SNOW_PYLON
 0000:00000036 Abs   OBJ_LAVA_PYLON
 0000:00000037 Abs   OBJ_FARM_PYLON
 0000:00000038 Abs   OBJ_HAUNTED_PYLON
 0000:00000039 Abs   OBJ_AIR_BOOSTER
 0000:0000003A Abs   OBJ_BEACH_ROCK
 0000:0000003B Abs   OBJ_CHALLENGE_COIN
 0000:0000003C Abs   OBJ_RACE_MONITOR
 0000:0000003D Abs   OBJ_BEACH_TIDE
 0000:0000003E Abs   OBJ_LAKE_TIDE
 0000:0000003F Abs   OBJ_GROUND_BOOST_PAD
 0000:00000040 Abs   OBJ_LAVA_FLAME
 0000:00000041 Abs   OBJ_LAVA_FIREBALL_ARC
 0000:00000042 Abs   OBJ_FARM_TREE
 0000:00000043 Abs   OBJ_FARM_CHICKEN
 0000:00000044 Abs   OBJ_FARM_BUNNY
 0000:00000045 Abs   OBJ_FARM_VEGETABLE
 0000:00000046 Abs   OBJ_FARM_NESTPOINT
 0000:00000047 Abs   OBJ_FARM_EGG_GENERATOR
 0000:00000048 Abs   OBJ_FARM_EGG
 0000:00000049 Abs   OBJ_FARM_EGG_MONITOR
 0000:0000004A Abs   OBJ_FARM_EGG_HUD
 0000:0000004B Abs   OBJ_FADER
 0000:0000004C Abs   OBJ_DIRECTIONAL_ARROW
 0000:0000004D Abs   OBJ_PAUSE
 0000:0000004E Abs   OBJ_HAPPY_SOUL_MONITOR
 0000:0000004F Abs   OBJ_HAPPY_SOUL_HUD
 0000:00000050 Abs   OBJ_HAUNTED_SOUL_GENERATOR
 0000:00000051 Abs   OBJ_HAPPY_SOUL
 0000:00000052 Abs   OBJ_HAUNTED_GHOST_SOULEATER
 0000:00000053 Abs   OBJ_HAUNTED_WELL_CENTRE
 0000:00000054 Abs   OBJ_HAUNTED_GHOST
 0000:00000055 Abs   OBJ_HAUNTED_RACE_GHOST
 0000:00000056 Abs   OBJ_HAUNTED_MUSHROOM
 0000:00000057 Abs   OBJ_HAUNTED_JUMPING_TREE
 0000:00000058 Abs   OBJ_HAUNTED_TREE
 0000:00000059 Abs   OBJ_JUNGLE_TREE
 0000:0000005A Abs   OBJ_JUNGLE_STONEPILLAR
 0000:0000005B Abs   OBJ_JUNGLE_GRUBHOLE
 0000:0000005C Abs   OBJ_JUNGLE_CROW_POINT
 0000:0000005D Abs   OBJ_JUNGLE_ROYAL_BIRD
 0000:0000005E Abs   OBJ_SWAMP_TREE
 0000:0000005F Abs   OBJ_SWAMP_FROG_POINT
 0000:00000060 Abs   OBJ_SWAMP_GUN
 0000:00000061 Abs   OBJ_SWAMP_HOOP_POINT
 0000:00000062 Abs   OBJ_SWAMP_TARGET_BEAST
 0000:00000063 Abs   OBJ_SWAMP_LILLIEPAD
 0000:00000064 Abs   OBJ_NUM
 0000:00000001 Abs   ANI_DIAMOND
 0000:00000002 Abs   ANI_STAR
 0000:00000003 Abs   ANI_BANANA
 0000:00000004 Abs   ANI_MINE
 0000:00000005 Abs   ANI_HUT_SHOT
 0000:00000006 Abs   ANI_WIGWAM
 0000:00000007 Abs   ANI_IGLOO
 0000:00000008 Abs   ANI_FIRE
 0000:00000009 Abs   ANI_FLAG
 0000:0000000A Abs   ANI_HUD_BANANA
 0000:0000000B Abs   ANI_FARM_CHICKEN
 0000:0000000C Abs   ANI_LOOP4_16
 0000:0000000D Abs   ANI_LOOP4_8
 0000:0000000E Abs   ANI_SPLAT
 0000:0000000F Abs   ANI_JUNGLE_WORM
 0000:00000010 Abs   ANI_NUM
 0000:00000000 Abs   SPACE_WORLD
 0000:00000000 Abs   CONTROL_SELECT_EVERY_TIME
 0000:00000000 Abs   DKP_LANGUAGE
 0000:00000000 Abs   MODE_TOURNAMENT
 0000:00000001 Abs   MODE_STORY
 0000:00000002 Abs   MODE_DOGFIGHT
 0000:00000003 Abs   MODE_BATTLE
 0000:00000004 Abs   MODE_CLOCKRACE
 0000:00000005 Abs   MODE_OPTIONS
 0000:00000000 Abs   MUS_BEACH
 0000:00000001 Abs   MUS_SNOW
 0000:00000002 Abs   MUS_LAVA
 0000:00000003 Abs   MUS_MENU
 0000:00000004 Abs   MUS_BAYOU
 0000:00000005 Abs   MUS_HAUNTED
 0000:00000006 Abs   MUS_CASTLE
 0000:00000000 Abs   SFX_DK_HEY
 0000:00000001 Abs   SFX_DK_COOL
 0000:00000002 Abs   SFX_DK_OK
 0000:00000003 Abs   SFX_DK_YEAH
 0000:00000004 Abs   SFX_DK_DISGUST1
 0000:00000005 Abs   SFX_DK_BIGHIT
 0000:00000006 Abs   SFX_DK_MEDHIT
 0000:00000007 Abs   SFX_DX_WAHEY
 0000:00000008 Abs   SFX_DX_THRILL
 0000:00000009 Abs   SFX_DX_YEH
 0000:0000000A Abs   SFX_DX_YEAHEAH
 0000:0000000B Abs   SFX_DX_MEDHIT
 0000:0000000C Abs   SFX_DX_SMLHIT
 0000:0000000D Abs   SFX_DX_HUFFY
 0000:0000000E Abs   SFX_DDR_WOOHOO
 0000:0000000F Abs   SFX_DDR_HAHA
 0000:00000010 Abs   SFX_DDR_HAPPYCHAT1
 0000:00000011 Abs   SFX_DDR_TRIUMPHANT
 0000:00000012 Abs   SFX_DDR_BIGHIT
 0000:00000013 Abs   SFX_DDR_OW
 0000:00000014 Abs   SFX_DDR_HEY
 0000:00000015 Abs   SFX_KREM_HAPPY1
 0000:00000016 Abs   SFX_KREM_HAPPY3
 0000:00000017 Abs   SFX_KREM_HAHAR
 0000:00000018 Abs   SFX_KREM_HAHAR2
 0000:00000019 Abs   SFX_KREM_SAD1
 0000:0000001A Abs   SFX_KREM_BIGHIT
 0000:0000001B Abs   SFX_KREM_HEY
 0000:0000001C Abs   SFX_KROOL_YEAH
 0000:0000001D Abs   SFX_KROOL_AHAHA
 0000:0000001E Abs   SFX_KROOL_TRIUMPHANT
 0000:0000001F Abs   SFX_KROOL_ATTACK
 0000:00000020 Abs   SFX_KROOL_FURIOUS2
 0000:00000021 Abs   SFX_KROOL_MEDHIT
 0000:00000022 Abs   SFX_KROOL_SMLHIT
 0000:00000023 Abs   SFX_GET_READY
 0000:00000024 Abs   SFX_GO
 0000:00000025 Abs   SFX_LAP2
 0000:00000026 Abs   SFX_FINAL_LAP
 0000:00000027 Abs   SFX_FINISH
 0000:00000028 Abs   SFX_BANANA_COLLECT
 0000:00000029 Abs   SFX_STAR_COLLECT
 0000:0000002A Abs   SFX_MENU_FWD
 0000:0000002B Abs   SFX_MENU_BCKWD
 0000:0000002C Abs   SFX_SHOOT1
 0000:0000002D Abs   SFX_SHOOT2
 0000:0000002E Abs   SFX_SHOOT3
 0000:0000002F Abs   SFX_PWRUP
 0000:00000030 Abs   SFX_FIRE
 0000:00000031 Abs   SFX_NEW_LAP
 0000:00000032 Abs   SFX_CMDY_IMPACT
 0000:00000033 Abs   SFX_POSGAIN_LOSS
 0000:00000034 Abs   SFX_FRAZZLE
 0000:00000035 Abs   SFX_PLANE_SWOOP
 0000:00000036 Abs   SFX_SPEED_BOOST3
 0000:00000037 Abs   SFX_MISS
 0000:00000038 Abs   SFX_CRANKY_HIT
 0000:00000039 Abs   SFX_CRANKY_ANGRY
 0000:0000003A Abs   SFX_CRANKY_ANNOYED
 0000:0000003B Abs   SFX_CRANKY_THANKYOU
 0000:0000003C Abs   SFX_CRANKY_LOVELY
 0000:0000003D Abs   SFX_CRANKY_HAPPY3
 0000:0000003E Abs   SFX_CRANKY_HAPPY4
 0000:0000003F Abs   SFX_PLANE_LOOP
 0000:00000040 Abs   SFX_CHICKEN_HIT2
 0000:00000041 Abs   SFX_CHICKEN_CLUCK2A
 0000:00000042 Abs   SFX_CHICKEN_CLUCK2B
 0000:00000043 Abs   SFX_BONES
 0000:00000044 Abs   SFX_PLANE_SPUTTER
 0000:00000045 Abs   SFX_CHAIN_RATTLE
 0000:00000046 Abs   SFX_LOCK_CLUNK
 0000:00000047 Abs   SFX_MELON_DROP
 0000:00000048 Abs   SFX_MELON_MINE_SPLAT
 0000:00000049 Abs   SFX_VEG_POPUP
 0000:0000004A Abs   SFX_VEG_FLUTTER_DROP
 0000:0000004B Abs   SFX_PUMPKIN_POPUP
 0000:0000004C Abs   SFX_PUMPKIN_DROP
 0000:0000004D Abs   SFX_TREE_WOBBLE
 0000:0000004E Abs   SFX_UNUSED
 0000:0000004F Abs   SFX_LIGHT_ON_OFF
 0000:00000050 Abs   SFX_BOUNCE
 0000:00000051 Abs   SFX_MSHROOM_HIT
 0000:00000052 Abs   SFX_FARM_TREE_HIT
 0000:00000053 Abs   SFX_TREE_LAUGH3A
 0000:00000054 Abs   SFX_TREE_LAUGH3B
 0000:00000055 Abs   SFX_TREE_LAUGH3C
 0000:00000056 Abs   SFX_GHOSTIE_MOVE
 0000:00000057 Abs   SFX_GHOSTIE_HIT
 0000:00000058 Abs   SFX_BLAST_BOOST
 0000:00000059 Abs   SFX_BUNNY_LAUGH
 0000:0000005A Abs   SFX_BUNNY_HIT
 0000:0000005B Abs   SFX_EGG_SET
 0000:0000005C Abs   SFX_EGGSPLODE
 0000:0000005D Abs   SFX_EGG_LAND_CRINKLE
 0000:0000005E Abs   SFX_EGG_SWIPE
 0000:0000005F Abs   SFX_EGG_SAFE
 0000:00000060 Abs   SFX_PULSE6
 0000:00000061 Abs   SFX_EVIL_LAUGH
 0000:00000062 Abs   SFX_CHEW
 0000:00000063 Abs   SFX_BONE_BUMP_FAST
 0000:00000064 Abs   SFX_HAPPYSOUL_WEE
 0000:00000065 Abs   SFX_HAPPYSOUL_HELP
 0000:00000066 Abs   SFX_HAPPYSOUL_THANKYOU
 0000:00000067 Abs   SFX_GHOST_FLEXI
 0000:00000068 Abs   SFX_CREATE_PWRUP
 0000:00006000 Abs   DIDDY_MAP_CNTRX
 0000:00007000 Abs   DIDDY_MAP_CNTRY
 0000:00000006 Abs   NUM_MODES
 0000:FFFE3E00 Abs   DIDDY_STARTX
 0000:FFFF8800 Abs   DIDDY_STARTY
 0000:00000008 Abs   BACK_XPOS
 0000:00000008 Abs   BACK_YPOS
 0000:000000D8 Abs   OK_XPOS
 0000:00000008 Abs   OK_YPOS
 0000:0000000C Abs   RARE_POS
 0000:0000000D Abs   E3_POS
 0000:0000000E Abs   ARROWS_POS
 0000:0000000F Abs   BIG_FONT_POS
 0000:00000078 Abs   MODE_ICON_X
 0000:00000062 Abs   MODE_ICON_Y
 0000:00000088 Abs   TEXT_YPOS
 0000:00000005 Abs   PLANE_X_SPEED
 0000:00000007 Abs   PLANE_Y_SPEED
 0000:0000000A Abs   PLANE_X_RANGE
 0000:00000007 Abs   PLANE_Y_RANGE
 0000:00000002 Abs   BALLOON_X_SPEED
 0000:00000005 Abs   BALLOON_Y_SPEED
 0000:00000014 Abs   BALLOON_X_RANGE
 0000:0000000A Abs   BALLOON_Y_RANGE
 0000:00000036 Abs   LEFT_ARROW_XPOS
 0000:0000005A Abs   LEFT_ARROW_YPOS
 0000:000000B2 Abs   RIGHT_ARROW_XPOS
 0000:0000005A Abs   RIGHT_ARROW_YPOS
 0000:06000000 Abs   BG_CHARDATA
 0000:0600E000 Abs   BG_MAP
 0000:06008000 Abs   CHAR_CHARDATA
 0000:0600F000 Abs   CHAR_MAP
 0000:0600C000 Abs   OVERLAY_CHARDATA
 0000:0600F800 Abs   OVERLAY_MAP
 0000:0000000E Abs   ARROW_PAL_POS
 0000:00000008 Abs   SEL_CHAR_TEXT_Y
 0000:00000000 Abs   STAGES_OFF
 0000:00000004 Abs   FRAMES_OFF
 0000:00000008 Abs   PALETTES_OFF
 0000:0000000C Abs   TEXT_OFF
 0000:00000010 Abs   OVERLAYS_OFF
 0000:00000014 Abs   LOC_SPRS_OFF
 0000:00000018 Abs   LOC_PALS_OFF
 0000:0000001C Abs   LOCATIONS_OFF
 0000:00000020 Abs   PATH_OFF
 0000:00000024 Abs   PATH_LEN_OFF
 0000:00000008 Abs   TEXT_ID_SHIFT
 0000:00000008 Abs   MAP_PATHVAL_SHIFT
 0000:00000005 Abs   MAP_ACTION_SHIFT
 0000:00000001 Abs   MAP_LOCATIONS_SHIFT
 0000:00000007 Abs   MAP_PATHVAL_MASK
 0000:00000007 Abs   MAP_ACTION_MASK
 0000:00000001 Abs   CUT_FRAME_SHIFT
 0000:00000006 Abs   CUT_FADESP_SHIFT
 0000:00000008 Abs   CUT_FADEUD_SHIFT
 0000:00000009 Abs   CUT_OVERLAY_SHIFT
 0000:0000000E Abs   CUT_FLIPS_SHIFT
 0000:0000001F Abs   CUT_FRAME_MASK
 0000:0000001F Abs   CUT_OVERLAY_MASK
 0000:00000084 Abs   TEXT_XPOS
 0000:000000C8 Abs   NEXT_START_XPOS
 0000:00000003 Abs   FADE_CUTOFF
 0000:00000084 Abs   CUT_SCENE_XPOS
 0000:00000008 Abs   CUT_SCENE_YPOS
 0000:00000060 Abs   CUT_SCENE_XS
 0000:00000040 Abs   CUT_SCENE_YS
 0000:00000000 Abs   LOCS_PAL
 0000:00000004 Abs   LINE_PAL
 0000:0000000D Abs   ARROWS_PAL
 0000:0000000E Abs   BG_ANIM_PAL
 0000:0000000F Abs   SMALL_FONT_PAL_POS
 0000:00000002 Abs   FADE_SHIFT
 0000:00000001 Abs   FADE_SPEED
 0000:00000020 Abs   MAP_FADEUP_DELAY_PRE
 0000:00000030 Abs   MAP_FADEUP_DELAY_POST
 0000:00000007 Abs   DOGFIGHT_BASE_TEXT
 0000:0000000D Abs   BATTLE_BASE_TEXT
 0000:00000006 Abs   TEXT_REST_POS
 0000:0000006E Abs   TEXT_END_POS
 0000:00000024 Abs   ICONS_Y
 0000:00000008 Abs   ICONS_SPACE
 0000:00000008 Abs   ICON_OFFSET
 0000:00000000 Abs   BEACH
 0000:00000001 Abs   SNOW
 0000:00000002 Abs   LAVA
 0000:00000003 Abs   MENU
 0000:00000004 Abs   BAYOU
 0000:00000005 Abs   HAUNTED
 0000:00000006 Abs   CASTLE
 0000:00000000 Abs   DK_HEY
 0000:00000001 Abs   DK_COOL
 0000:00000002 Abs   DK_OK
 0000:00000003 Abs   DK_YEAH
 0000:00000004 Abs   DK_DISGUST1
 0000:00000005 Abs   DK_BIGHIT
 0000:00000006 Abs   DK_MEDHIT
 0000:00000007 Abs   DX_WAHEY
 0000:00000008 Abs   DX_THRILL
 0000:00000009 Abs   DX_YEH
 0000:0000000A Abs   DX_YEAHEAH
 0000:0000000B Abs   DX_MEDHIT
 0000:0000000C Abs   DX_SMLHIT
 0000:0000000D Abs   DX_HUFFY
 0000:0000000E Abs   DDR_WOOHOO
 0000:0000000F Abs   DDR_HAHA
 0000:00000010 Abs   DDR_HAPPYCHAT1
 0000:00000011 Abs   DDR_TRIUMPHANT
 0000:00000012 Abs   DDR_BIGHIT
 0000:00000013 Abs   DDR_OW
 0000:00000014 Abs   DDR_HEY
 0000:00000015 Abs   KREM_HAPPY1
 0000:00000016 Abs   KREM_HAPPY3
 0000:00000017 Abs   KREM_HAHAR
 0000:00000018 Abs   KREM_HAHAR2
 0000:00000019 Abs   KREM_SAD1
 0000:0000001A Abs   KREM_BIGHIT
 0000:0000001B Abs   KREM_HEY
 0000:0000001C Abs   KROOL_YEAH
 0000:0000001D Abs   KROOL_AHAHA
 0000:0000001E Abs   KROOL_TRIUMPHANT
 0000:0000001F Abs   KROOL_ATTACK
 0000:00000020 Abs   KROOL_FURIOUS2
 0000:00000021 Abs   KROOL_MEDHIT
 0000:00000022 Abs   KROOL_SMLHIT
 0000:00000023 Abs   GET_READY
 0000:00000024 Abs   GO
 0000:00000025 Abs   LAP2
 0000:00000026 Abs   FINAL_LAP
 0000:00000027 Abs   FINISH
 0000:00000028 Abs   BANANA_COLLECT
 0000:00000029 Abs   STAR_COLLECT
 0000:0000002A Abs   MENU_FWD
 0000:0000002B Abs   MENU_BCKWD
 0000:0000002C Abs   SHOOT1
 0000:0000002D Abs   SHOOT2
 0000:0000002E Abs   SHOOT3
 0000:0000002F Abs   PWRUP
 0000:00000030 Abs   FIRE
 0000:00000031 Abs   NEW_LAP
 0000:00000032 Abs   CMDY_IMPACT
 0000:00000033 Abs   POSGAIN_LOSS
 0000:00000034 Abs   FRAZZLE
 0000:00000035 Abs   PLANE_SWOOP
 0000:00000036 Abs   SPEED_BOOST3
 0000:00000037 Abs   MISS
 0000:00000038 Abs   CRANKY_HIT
 0000:00000039 Abs   CRANKY_ANGRY
 0000:0000003A Abs   CRANKY_ANNOYED
 0000:0000003B Abs   CRANKY_THANKYOU
 0000:0000003C Abs   CRANKY_LOVELY
 0000:0000003D Abs   CRANKY_HAPPY3
 0000:0000003E Abs   CRANKY_HAPPY4
 0000:0000003F Abs   PLANE_LOOP
 0000:00000040 Abs   CHICKEN_HIT2
 0000:00000041 Abs   CHICKEN_CLUCK2A
 0000:00000042 Abs   CHICKEN_CLUCK2B
 0000:00000043 Abs   BONES
 0000:00000044 Abs   PLANE_SPUTTER
 0000:00000045 Abs   CHAIN_RATTLE
 0000:00000046 Abs   LOCK_CLUNK
 0000:00000047 Abs   MELON_DROP
 0000:00000048 Abs   MELON_MINE_SPLAT
 0000:00000049 Abs   VEG_POPUP
 0000:0000004A Abs   VEG_FLUTTER_DROP
 0000:0000004B Abs   PUMPKIN_POPUP
 0000:0000004C Abs   PUMPKIN_DROP
 0000:0000004D Abs   TREE_WOBBLE
 0000:0000004E Abs   UNUSED
 0000:0000004F Abs   LIGHT_ON_OFF
 0000:00000050 Abs   BOUNCE
 0000:00000051 Abs   MSHROOM_HIT
 0000:00000052 Abs   FARM_TREE_HIT
 0000:00000053 Abs   TREE_LAUGH3A
 0000:00000054 Abs   TREE_LAUGH3B
 0000:00000055 Abs   TREE_LAUGH3C
 0000:00000056 Abs   GHOSTIE_MOVE
 0000:00000057 Abs   GHOSTIE_HIT
 0000:00000058 Abs   BLAST_BOOST
 0000:00000059 Abs   BUNNY_LAUGH
 0000:0000005A Abs   BUNNY_HIT
 0000:0000005B Abs   EGG_SET
 0000:0000005C Abs   EGGSPLODE
 0000:0000005D Abs   EGG_LAND_CRINKLE
 0000:0000005E Abs   EGG_SWIPE
 0000:0000005F Abs   EGG_SAFE
 0000:00000060 Abs   PULSE6
 0000:00000061 Abs   EVIL_LAUGH
 0000:00000062 Abs   CHEW
 0000:00000063 Abs   BONE_BUMP_FAST
 0000:00000064 Abs   HAPPYSOUL_WEE
 0000:00000065 Abs   HAPPYSOUL_HELP
 0000:00000066 Abs   HAPPYSOUL_THANKYOU
 0000:00000067 Abs   GHOST_FLEXI
 0000:00000068 Abs   CREATE_PWRUP
 0000:0000000E Abs   SMALL_FONT_POS
 0000:00000078 Abs   LEV_TEXT_X
 0000:00000030 Abs   LEV_TEXT_Y
 0000:00000018 Abs   MAX_TEXT_RANGE
 0000:0000000C Abs   TEXT_SPEED
 0000:00000010 Abs   LEV_TEXT_BREAK
 0000:00000014 Abs   LEV_TEXT_BASE
 0000:00000048 Abs   CENTRE_YPOS
 0000:00001000 Abs   MAX_SCALE
 0000:00000008 Abs   SPACE_SIZE
 0000:00000033 Abs   NUM_CHARS
 0000:00000020 Abs   MAX_CHUNK_WIDTH
 0000:00000001 Abs   TEXT_CLR
 0000:00000002 Abs   TEXT_KEEP
 0000:00000000 Abs   MAP_MOVE_NONE
 0000:00000001 Abs   MAP_MOVE_PATH
 0000:00000002 Abs   MAP_MOVE_LOC0
 0000:00000003 Abs   MAP_MOVE_LOC1
 0000:00000004 Abs   MAP_MOVE_LOC2
 0000:00000005 Abs   MAP_MOVE_LOC3
 0000:00000006 Abs   MAP_MOVE_FADEUP
 0000:00000007 Abs   MAP_MOVE_DELAY
 0000:00000001 Abs   MAP_LOC0
 0000:00000002 Abs   MAP_LOC1
 0000:00000004 Abs   MAP_LOC2
 0000:00000008 Abs   MAP_LOC3
 0000:00000000 Abs   CUT_NO_FLIP
 0000:00000001 Abs   CUT_FLIPX
 0000:0000001F Abs   CUT_NO_OVERLAY
 0000:00000000 Abs   CUT_FADEUP
 0000:00000001 Abs   CUT_FADEDOWN
 0000:00000001 Abs   PNSS
 0000:00000000 Abs   PEWS
 0000:00000002 Abs   PNWS
 0000:00000002 Abs   PSWS
 0000:00000002 Abs   PSES
 0000:00000002 Abs   PNES
 0000:00000000 Abs   PNSR
 0000:00000000 Abs   PEWR
 0000:00000000 Abs   PNWR
 0000:00000002 Abs   PSWR
 0000:00000003 Abs   PSER
 0000:00000001 Abs   PNER
 0000:00000000 Abs   SCENE_TEMPLE
 0000:00000001 Abs   SCENE_FIND_MAP
 0000:00000002 Abs   SCENE_AT_MAP
 0000:00000003 Abs   SCENE_LOOKING
 0000:00000004 Abs   SCENE_LOST_ISLAND
 0000:00000005 Abs   SCENE_DOORS
 0000:00000006 Abs   SCENE_ALL_GUARDS
 0000:00000007 Abs   SCENE_KROOL_TALK
 0000:0000000C Abs   SCENE_GUARD1
 0000:0000000B Abs   SCENE_GUARD2
 0000:00000008 Abs   SCENE_GUARD3
 0000:0000000E Abs   SCENE_GUARD4
 0000:0000000D Abs   SCENE_PODIUM
 0000:00000009 Abs   SCENE_SEE_GOLD
 0000:0000000A Abs   SCENE_END
 0000:00000000 Abs   ANIM_DOORS_SHUT
 0000:00000001 Abs   ANIM_DOORS_OPENING
 0000:00000002 Abs   ANIM_PODIUM_RED
 0000:00000003 Abs   ANIM_PODIUM_GREEN
 0000:00000004 Abs   ANIM_PODIUM_BLUE
 0000:00000005 Abs   ANIM_PODIUM_YELLOW
 0000:00000006 Abs   ANIM_KROOL_TALKING
 0000:000000BC Abs   DM1SAD_L
 0000:000000BE Abs   DM1SAD_H
 0000:000000C0 Abs   DM1DAD_L
 0000:000000C2 Abs   DM1DAD_H
 0000:000000C4 Abs   DM1CNT_L
 0000:000000C6 Abs   DM1CNT_H
 0000:000000C8 Abs   DM2SAD_L
 0000:000000CA Abs   DM2SAD_H
 0000:000000CC Abs   DM2DAD_L
 0000:000000CE Abs   DM2DAD_H
 0000:000000D0 Abs   DM2CNT_L
 0000:000000D2 Abs   DM2CNT_H
 0000:000000D4 Abs   DM3SAD_L
 0000:000000D6 Abs   DM3SAD_H
 0000:000000D8 Abs   DM3DAD_L
 0000:000000DA Abs   DM3DAD_H
 0000:000000DC Abs   DM3CNT_L
 0000:000000DE Abs   DM3CNT_H
 0000:00000204 Abs   WSCNT
 0000:00000006 Abs   VCOUNT
 0000:00000004 Abs   DISPSTAT
 0000:00000000 Abs   DISPCNT
 0000:00000008 Abs   BG0CNT
 0000:0000000A Abs   BG1CNT
 0000:0000000C Abs   BG2CNT
 0000:0000000E Abs   BG3CNT
 0000:00000082 Abs   SGCNT0_H
 0000:00000084 Abs   SGCNT1
 0000:00000088 Abs   SG_BIAS
 0000:000000A0 Abs   SGFIFOA_L
 0000:000000A2 Abs   SGFIFOA_H
 0000:000000A4 Abs   SGFIFOB_L
 0000:000000A6 Abs   SGFIFOB_H
 0000:00000100 Abs   TM0D
 0000:00000102 Abs   TM0CNT
 0000:05000000 Abs   PAL_RAM
 0000:EEEEEEEE Abs   WIPE_MEM_VAL
 0000:00000004 Abs   SG_DSA_RATIO_FULL
 0000:00000008 Abs   SG_DSB_RATIO_FULL
 0000:00000100 Abs   SG_DSA_OUTPUT_R
 0000:00000200 Abs   SG_DSA_OUTPUT_L
 0000:00000000 Abs   SG_DSA_TIMER0
 0000:00000400 Abs   SG_DSA_TIMER1
 0000:00000800 Abs   SG_DSA_FIFO_RESET
 0000:00001000 Abs   SG_DSB_OUTPUT_R
 0000:00002000 Abs   SG_DSB_OUTPUT_L
 0000:00000000 Abs   SG_DSB_TIMER0
 0000:00004000 Abs   SG_DSB_TIMER1
 0000:00008000 Abs   SG_DSB_FIFO_RESET
 0000:00000000 Abs   DMA_TIMING_IMM
 0000:10000000 Abs   DMA_TIMING_V_BLANK
 0000:20000000 Abs   DMA_TIMING_H_BLANK
 0000:30000000 Abs   DMA_TIMING_DSFIFO
 0000:02000000 Abs   DMA_REPEAT_ON
 0000:00000001 Abs   CONT_A
 0000:00000002 Abs   CONT_B
 0000:00000004 Abs   CONT_SEL
 0000:00000008 Abs   CONT_START
 0000:00000010 Abs   CONT_RIGHT
 0000:00000020 Abs   CONT_LEFT
 0000:00000040 Abs   CONT_UP
 0000:00000080 Abs   CONT_DOWN
 0000:00000100 Abs   CONT_SR
 0000:00000200 Abs   CONT_SL
 0000:00000000 Abs   null
 0000:00000000 Abs   ST_FLAT
 0000:00000001 Abs   ST_CYLINDER
 0000:00000002 Abs   ST_SPHERE
 0000:00000001 Abs   true
 0000:00000000 Abs   false
 0000:0200E360 Abs   _bss_end__
 0000:0805E6C8 Abs   _etext
 0000:030065C8 Abs   __bss_start__
 0000:08002FA0 Abs   text32_end
 0000:0200E360 Abs   end
 0000:0200E360 Abs   __bss_end__
 0000:030065C8 Abs   __bss_start
 0000:080000F4 Abs   text32_start
 0000:084D8644 Abs   _edata
 0000:0200E360 Abs   _end
